
ctarget:     file format elf64-x86-64


Disassembly of section .init:

0000000000400c60 <_init>:
  400c60:	48 83 ec 08          	sub    $0x8,%rsp
  400c64:	48 8b 05 8d 33 20 00 	mov    0x20338d(%rip),%rax        # 603ff8 <_DYNAMIC+0x1d0>
  400c6b:	48 85 c0             	test   %rax,%rax
  400c6e:	74 05                	je     400c75 <_init+0x15>
  400c70:	e8 2b 01 00 00       	callq  400da0 <__gmon_start__@plt>
  400c75:	48 83 c4 08          	add    $0x8,%rsp
  400c79:	c3                   	retq   

Disassembly of section .plt:

0000000000400c80 <strcasecmp@plt-0x10>:
  400c80:	ff 35 82 33 20 00    	pushq  0x203382(%rip)        # 604008 <_GLOBAL_OFFSET_TABLE_+0x8>
  400c86:	ff 25 84 33 20 00    	jmpq   *0x203384(%rip)        # 604010 <_GLOBAL_OFFSET_TABLE_+0x10>
  400c8c:	0f 1f 40 00          	nopl   0x0(%rax)

0000000000400c90 <strcasecmp@plt>:
  400c90:	ff 25 82 33 20 00    	jmpq   *0x203382(%rip)        # 604018 <_GLOBAL_OFFSET_TABLE_+0x18>
  400c96:	68 00 00 00 00       	pushq  $0x0
  400c9b:	e9 e0 ff ff ff       	jmpq   400c80 <_init+0x20>

0000000000400ca0 <__errno_location@plt>:
  400ca0:	ff 25 7a 33 20 00    	jmpq   *0x20337a(%rip)        # 604020 <_GLOBAL_OFFSET_TABLE_+0x20>
  400ca6:	68 01 00 00 00       	pushq  $0x1
  400cab:	e9 d0 ff ff ff       	jmpq   400c80 <_init+0x20>

0000000000400cb0 <srandom@plt>:
  400cb0:	ff 25 72 33 20 00    	jmpq   *0x203372(%rip)        # 604028 <_GLOBAL_OFFSET_TABLE_+0x28>
  400cb6:	68 02 00 00 00       	pushq  $0x2
  400cbb:	e9 c0 ff ff ff       	jmpq   400c80 <_init+0x20>

0000000000400cc0 <strncmp@plt>:
  400cc0:	ff 25 6a 33 20 00    	jmpq   *0x20336a(%rip)        # 604030 <_GLOBAL_OFFSET_TABLE_+0x30>
  400cc6:	68 03 00 00 00       	pushq  $0x3
  400ccb:	e9 b0 ff ff ff       	jmpq   400c80 <_init+0x20>

0000000000400cd0 <strcpy@plt>:
  400cd0:	ff 25 62 33 20 00    	jmpq   *0x203362(%rip)        # 604038 <_GLOBAL_OFFSET_TABLE_+0x38>
  400cd6:	68 04 00 00 00       	pushq  $0x4
  400cdb:	e9 a0 ff ff ff       	jmpq   400c80 <_init+0x20>

0000000000400ce0 <puts@plt>:
  400ce0:	ff 25 5a 33 20 00    	jmpq   *0x20335a(%rip)        # 604040 <_GLOBAL_OFFSET_TABLE_+0x40>
  400ce6:	68 05 00 00 00       	pushq  $0x5
  400ceb:	e9 90 ff ff ff       	jmpq   400c80 <_init+0x20>

0000000000400cf0 <write@plt>:
  400cf0:	ff 25 52 33 20 00    	jmpq   *0x203352(%rip)        # 604048 <_GLOBAL_OFFSET_TABLE_+0x48>
  400cf6:	68 06 00 00 00       	pushq  $0x6
  400cfb:	e9 80 ff ff ff       	jmpq   400c80 <_init+0x20>

0000000000400d00 <__stack_chk_fail@plt>:
  400d00:	ff 25 4a 33 20 00    	jmpq   *0x20334a(%rip)        # 604050 <_GLOBAL_OFFSET_TABLE_+0x50>
  400d06:	68 07 00 00 00       	pushq  $0x7
  400d0b:	e9 70 ff ff ff       	jmpq   400c80 <_init+0x20>

0000000000400d10 <mmap@plt>:
  400d10:	ff 25 42 33 20 00    	jmpq   *0x203342(%rip)        # 604058 <_GLOBAL_OFFSET_TABLE_+0x58>
  400d16:	68 08 00 00 00       	pushq  $0x8
  400d1b:	e9 60 ff ff ff       	jmpq   400c80 <_init+0x20>

0000000000400d20 <memset@plt>:
  400d20:	ff 25 3a 33 20 00    	jmpq   *0x20333a(%rip)        # 604060 <_GLOBAL_OFFSET_TABLE_+0x60>
  400d26:	68 09 00 00 00       	pushq  $0x9
  400d2b:	e9 50 ff ff ff       	jmpq   400c80 <_init+0x20>

0000000000400d30 <alarm@plt>:
  400d30:	ff 25 32 33 20 00    	jmpq   *0x203332(%rip)        # 604068 <_GLOBAL_OFFSET_TABLE_+0x68>
  400d36:	68 0a 00 00 00       	pushq  $0xa
  400d3b:	e9 40 ff ff ff       	jmpq   400c80 <_init+0x20>

0000000000400d40 <close@plt>:
  400d40:	ff 25 2a 33 20 00    	jmpq   *0x20332a(%rip)        # 604070 <_GLOBAL_OFFSET_TABLE_+0x70>
  400d46:	68 0b 00 00 00       	pushq  $0xb
  400d4b:	e9 30 ff ff ff       	jmpq   400c80 <_init+0x20>

0000000000400d50 <read@plt>:
  400d50:	ff 25 22 33 20 00    	jmpq   *0x203322(%rip)        # 604078 <_GLOBAL_OFFSET_TABLE_+0x78>
  400d56:	68 0c 00 00 00       	pushq  $0xc
  400d5b:	e9 20 ff ff ff       	jmpq   400c80 <_init+0x20>

0000000000400d60 <__libc_start_main@plt>:
  400d60:	ff 25 1a 33 20 00    	jmpq   *0x20331a(%rip)        # 604080 <_GLOBAL_OFFSET_TABLE_+0x80>
  400d66:	68 0d 00 00 00       	pushq  $0xd
  400d6b:	e9 10 ff ff ff       	jmpq   400c80 <_init+0x20>

0000000000400d70 <signal@plt>:
  400d70:	ff 25 12 33 20 00    	jmpq   *0x203312(%rip)        # 604088 <_GLOBAL_OFFSET_TABLE_+0x88>
  400d76:	68 0e 00 00 00       	pushq  $0xe
  400d7b:	e9 00 ff ff ff       	jmpq   400c80 <_init+0x20>

0000000000400d80 <gethostbyname@plt>:
  400d80:	ff 25 0a 33 20 00    	jmpq   *0x20330a(%rip)        # 604090 <_GLOBAL_OFFSET_TABLE_+0x90>
  400d86:	68 0f 00 00 00       	pushq  $0xf
  400d8b:	e9 f0 fe ff ff       	jmpq   400c80 <_init+0x20>

0000000000400d90 <__memmove_chk@plt>:
  400d90:	ff 25 02 33 20 00    	jmpq   *0x203302(%rip)        # 604098 <_GLOBAL_OFFSET_TABLE_+0x98>
  400d96:	68 10 00 00 00       	pushq  $0x10
  400d9b:	e9 e0 fe ff ff       	jmpq   400c80 <_init+0x20>

0000000000400da0 <__gmon_start__@plt>:
  400da0:	ff 25 fa 32 20 00    	jmpq   *0x2032fa(%rip)        # 6040a0 <_GLOBAL_OFFSET_TABLE_+0xa0>
  400da6:	68 11 00 00 00       	pushq  $0x11
  400dab:	e9 d0 fe ff ff       	jmpq   400c80 <_init+0x20>

0000000000400db0 <strtol@plt>:
  400db0:	ff 25 f2 32 20 00    	jmpq   *0x2032f2(%rip)        # 6040a8 <_GLOBAL_OFFSET_TABLE_+0xa8>
  400db6:	68 12 00 00 00       	pushq  $0x12
  400dbb:	e9 c0 fe ff ff       	jmpq   400c80 <_init+0x20>

0000000000400dc0 <memcpy@plt>:
  400dc0:	ff 25 ea 32 20 00    	jmpq   *0x2032ea(%rip)        # 6040b0 <_GLOBAL_OFFSET_TABLE_+0xb0>
  400dc6:	68 13 00 00 00       	pushq  $0x13
  400dcb:	e9 b0 fe ff ff       	jmpq   400c80 <_init+0x20>

0000000000400dd0 <time@plt>:
  400dd0:	ff 25 e2 32 20 00    	jmpq   *0x2032e2(%rip)        # 6040b8 <_GLOBAL_OFFSET_TABLE_+0xb8>
  400dd6:	68 14 00 00 00       	pushq  $0x14
  400ddb:	e9 a0 fe ff ff       	jmpq   400c80 <_init+0x20>

0000000000400de0 <random@plt>:
  400de0:	ff 25 da 32 20 00    	jmpq   *0x2032da(%rip)        # 6040c0 <_GLOBAL_OFFSET_TABLE_+0xc0>
  400de6:	68 15 00 00 00       	pushq  $0x15
  400deb:	e9 90 fe ff ff       	jmpq   400c80 <_init+0x20>

0000000000400df0 <_IO_getc@plt>:
  400df0:	ff 25 d2 32 20 00    	jmpq   *0x2032d2(%rip)        # 6040c8 <_GLOBAL_OFFSET_TABLE_+0xc8>
  400df6:	68 16 00 00 00       	pushq  $0x16
  400dfb:	e9 80 fe ff ff       	jmpq   400c80 <_init+0x20>

0000000000400e00 <__isoc99_sscanf@plt>:
  400e00:	ff 25 ca 32 20 00    	jmpq   *0x2032ca(%rip)        # 6040d0 <_GLOBAL_OFFSET_TABLE_+0xd0>
  400e06:	68 17 00 00 00       	pushq  $0x17
  400e0b:	e9 70 fe ff ff       	jmpq   400c80 <_init+0x20>

0000000000400e10 <munmap@plt>:
  400e10:	ff 25 c2 32 20 00    	jmpq   *0x2032c2(%rip)        # 6040d8 <_GLOBAL_OFFSET_TABLE_+0xd8>
  400e16:	68 18 00 00 00       	pushq  $0x18
  400e1b:	e9 60 fe ff ff       	jmpq   400c80 <_init+0x20>

0000000000400e20 <__printf_chk@plt>:
  400e20:	ff 25 ba 32 20 00    	jmpq   *0x2032ba(%rip)        # 6040e0 <_GLOBAL_OFFSET_TABLE_+0xe0>
  400e26:	68 19 00 00 00       	pushq  $0x19
  400e2b:	e9 50 fe ff ff       	jmpq   400c80 <_init+0x20>

0000000000400e30 <fopen@plt>:
  400e30:	ff 25 b2 32 20 00    	jmpq   *0x2032b2(%rip)        # 6040e8 <_GLOBAL_OFFSET_TABLE_+0xe8>
  400e36:	68 1a 00 00 00       	pushq  $0x1a
  400e3b:	e9 40 fe ff ff       	jmpq   400c80 <_init+0x20>

0000000000400e40 <getopt@plt>:
  400e40:	ff 25 aa 32 20 00    	jmpq   *0x2032aa(%rip)        # 6040f0 <_GLOBAL_OFFSET_TABLE_+0xf0>
  400e46:	68 1b 00 00 00       	pushq  $0x1b
  400e4b:	e9 30 fe ff ff       	jmpq   400c80 <_init+0x20>

0000000000400e50 <strtoul@plt>:
  400e50:	ff 25 a2 32 20 00    	jmpq   *0x2032a2(%rip)        # 6040f8 <_GLOBAL_OFFSET_TABLE_+0xf8>
  400e56:	68 1c 00 00 00       	pushq  $0x1c
  400e5b:	e9 20 fe ff ff       	jmpq   400c80 <_init+0x20>

0000000000400e60 <gethostname@plt>:
  400e60:	ff 25 9a 32 20 00    	jmpq   *0x20329a(%rip)        # 604100 <_GLOBAL_OFFSET_TABLE_+0x100>
  400e66:	68 1d 00 00 00       	pushq  $0x1d
  400e6b:	e9 10 fe ff ff       	jmpq   400c80 <_init+0x20>

0000000000400e70 <exit@plt>:
  400e70:	ff 25 92 32 20 00    	jmpq   *0x203292(%rip)        # 604108 <_GLOBAL_OFFSET_TABLE_+0x108>
  400e76:	68 1e 00 00 00       	pushq  $0x1e
  400e7b:	e9 00 fe ff ff       	jmpq   400c80 <_init+0x20>

0000000000400e80 <connect@plt>:
  400e80:	ff 25 8a 32 20 00    	jmpq   *0x20328a(%rip)        # 604110 <_GLOBAL_OFFSET_TABLE_+0x110>
  400e86:	68 1f 00 00 00       	pushq  $0x1f
  400e8b:	e9 f0 fd ff ff       	jmpq   400c80 <_init+0x20>

0000000000400e90 <__fprintf_chk@plt>:
  400e90:	ff 25 82 32 20 00    	jmpq   *0x203282(%rip)        # 604118 <_GLOBAL_OFFSET_TABLE_+0x118>
  400e96:	68 20 00 00 00       	pushq  $0x20
  400e9b:	e9 e0 fd ff ff       	jmpq   400c80 <_init+0x20>

0000000000400ea0 <__sprintf_chk@plt>:
  400ea0:	ff 25 7a 32 20 00    	jmpq   *0x20327a(%rip)        # 604120 <_GLOBAL_OFFSET_TABLE_+0x120>
  400ea6:	68 21 00 00 00       	pushq  $0x21
  400eab:	e9 d0 fd ff ff       	jmpq   400c80 <_init+0x20>

0000000000400eb0 <socket@plt>:
  400eb0:	ff 25 72 32 20 00    	jmpq   *0x203272(%rip)        # 604128 <_GLOBAL_OFFSET_TABLE_+0x128>
  400eb6:	68 22 00 00 00       	pushq  $0x22
  400ebb:	e9 c0 fd ff ff       	jmpq   400c80 <_init+0x20>

Disassembly of section .text:

0000000000400ec0 <_start>:
  400ec0:	31 ed                	xor    %ebp,%ebp
  400ec2:	49 89 d1             	mov    %rdx,%r9
  400ec5:	5e                   	pop    %rsi
  400ec6:	48 89 e2             	mov    %rsp,%rdx
  400ec9:	48 83 e4 f0          	and    $0xfffffffffffffff0,%rsp
  400ecd:	50                   	push   %rax
  400ece:	54                   	push   %rsp
  400ecf:	49 c7 c0 10 2e 40 00 	mov    $0x402e10,%r8
  400ed6:	48 c7 c1 a0 2d 40 00 	mov    $0x402da0,%rcx
  400edd:	48 c7 c7 bf 11 40 00 	mov    $0x4011bf,%rdi
  400ee4:	e8 77 fe ff ff       	callq  400d60 <__libc_start_main@plt>
  400ee9:	f4                   	hlt    
  400eea:	66 0f 1f 44 00 00    	nopw   0x0(%rax,%rax,1)

0000000000400ef0 <deregister_tm_clones>:
  400ef0:	b8 b7 44 60 00       	mov    $0x6044b7,%eax
  400ef5:	55                   	push   %rbp
  400ef6:	48 2d b0 44 60 00    	sub    $0x6044b0,%rax
  400efc:	48 83 f8 0e          	cmp    $0xe,%rax
  400f00:	48 89 e5             	mov    %rsp,%rbp
  400f03:	77 02                	ja     400f07 <deregister_tm_clones+0x17>
  400f05:	5d                   	pop    %rbp
  400f06:	c3                   	retq   
  400f07:	b8 00 00 00 00       	mov    $0x0,%eax
  400f0c:	48 85 c0             	test   %rax,%rax
  400f0f:	74 f4                	je     400f05 <deregister_tm_clones+0x15>
  400f11:	5d                   	pop    %rbp
  400f12:	bf b0 44 60 00       	mov    $0x6044b0,%edi
  400f17:	ff e0                	jmpq   *%rax
  400f19:	0f 1f 80 00 00 00 00 	nopl   0x0(%rax)

0000000000400f20 <register_tm_clones>:
  400f20:	b8 b0 44 60 00       	mov    $0x6044b0,%eax
  400f25:	55                   	push   %rbp
  400f26:	48 2d b0 44 60 00    	sub    $0x6044b0,%rax
  400f2c:	48 c1 f8 03          	sar    $0x3,%rax
  400f30:	48 89 e5             	mov    %rsp,%rbp
  400f33:	48 89 c2             	mov    %rax,%rdx
  400f36:	48 c1 ea 3f          	shr    $0x3f,%rdx
  400f3a:	48 01 d0             	add    %rdx,%rax
  400f3d:	48 d1 f8             	sar    %rax
  400f40:	75 02                	jne    400f44 <register_tm_clones+0x24>
  400f42:	5d                   	pop    %rbp
  400f43:	c3                   	retq   
  400f44:	ba 00 00 00 00       	mov    $0x0,%edx
  400f49:	48 85 d2             	test   %rdx,%rdx
  400f4c:	74 f4                	je     400f42 <register_tm_clones+0x22>
  400f4e:	5d                   	pop    %rbp
  400f4f:	48 89 c6             	mov    %rax,%rsi
  400f52:	bf b0 44 60 00       	mov    $0x6044b0,%edi
  400f57:	ff e2                	jmpq   *%rdx
  400f59:	0f 1f 80 00 00 00 00 	nopl   0x0(%rax)

0000000000400f60 <__do_global_dtors_aux>:
  400f60:	80 3d 89 35 20 00 00 	cmpb   $0x0,0x203589(%rip)        # 6044f0 <completed.6973>
  400f67:	75 11                	jne    400f7a <__do_global_dtors_aux+0x1a>
  400f69:	55                   	push   %rbp
  400f6a:	48 89 e5             	mov    %rsp,%rbp
  400f6d:	e8 7e ff ff ff       	callq  400ef0 <deregister_tm_clones>
  400f72:	5d                   	pop    %rbp
  400f73:	c6 05 76 35 20 00 01 	movb   $0x1,0x203576(%rip)        # 6044f0 <completed.6973>
  400f7a:	f3 c3                	repz retq 
  400f7c:	0f 1f 40 00          	nopl   0x0(%rax)

0000000000400f80 <frame_dummy>:
  400f80:	48 83 3d 98 2e 20 00 	cmpq   $0x0,0x202e98(%rip)        # 603e20 <__JCR_END__>
  400f87:	00 
  400f88:	74 1e                	je     400fa8 <frame_dummy+0x28>
  400f8a:	b8 00 00 00 00       	mov    $0x0,%eax
  400f8f:	48 85 c0             	test   %rax,%rax
  400f92:	74 14                	je     400fa8 <frame_dummy+0x28>
  400f94:	55                   	push   %rbp
  400f95:	bf 20 3e 60 00       	mov    $0x603e20,%edi
  400f9a:	48 89 e5             	mov    %rsp,%rbp
  400f9d:	ff d0                	callq  *%rax
  400f9f:	5d                   	pop    %rbp
  400fa0:	e9 7b ff ff ff       	jmpq   400f20 <register_tm_clones>
  400fa5:	0f 1f 00             	nopl   (%rax)
  400fa8:	e9 73 ff ff ff       	jmpq   400f20 <register_tm_clones>
  400fad:	0f 1f 00             	nopl   (%rax)

0000000000400fb0 <usage>:
  400fb0:	48 83 ec 08          	sub    $0x8,%rsp
  400fb4:	48 89 fa             	mov    %rdi,%rdx
  400fb7:	83 3d 6a 35 20 00 00 	cmpl   $0x0,0x20356a(%rip)        # 604528 <is_checker>
  400fbe:	74 3e                	je     400ffe <usage+0x4e>
  400fc0:	be 28 2e 40 00       	mov    $0x402e28,%esi
  400fc5:	bf 01 00 00 00       	mov    $0x1,%edi
  400fca:	b8 00 00 00 00       	mov    $0x0,%eax
  400fcf:	e8 4c fe ff ff       	callq  400e20 <__printf_chk@plt>
  400fd4:	bf 60 2e 40 00       	mov    $0x402e60,%edi
  400fd9:	e8 02 fd ff ff       	callq  400ce0 <puts@plt>
  400fde:	bf d8 2f 40 00       	mov    $0x402fd8,%edi
  400fe3:	e8 f8 fc ff ff       	callq  400ce0 <puts@plt>
  400fe8:	bf 88 2e 40 00       	mov    $0x402e88,%edi
  400fed:	e8 ee fc ff ff       	callq  400ce0 <puts@plt>
  400ff2:	bf f2 2f 40 00       	mov    $0x402ff2,%edi
  400ff7:	e8 e4 fc ff ff       	callq  400ce0 <puts@plt>
  400ffc:	eb 32                	jmp    401030 <usage+0x80>
  400ffe:	be 0e 30 40 00       	mov    $0x40300e,%esi
  401003:	bf 01 00 00 00       	mov    $0x1,%edi
  401008:	b8 00 00 00 00       	mov    $0x0,%eax
  40100d:	e8 0e fe ff ff       	callq  400e20 <__printf_chk@plt>
  401012:	bf b0 2e 40 00       	mov    $0x402eb0,%edi
  401017:	e8 c4 fc ff ff       	callq  400ce0 <puts@plt>
  40101c:	bf d8 2e 40 00       	mov    $0x402ed8,%edi
  401021:	e8 ba fc ff ff       	callq  400ce0 <puts@plt>
  401026:	bf 2c 30 40 00       	mov    $0x40302c,%edi
  40102b:	e8 b0 fc ff ff       	callq  400ce0 <puts@plt>
  401030:	bf 00 00 00 00       	mov    $0x0,%edi
  401035:	e8 36 fe ff ff       	callq  400e70 <exit@plt>

000000000040103a <initialize_target>:
  40103a:	55                   	push   %rbp
  40103b:	53                   	push   %rbx
  40103c:	48 81 ec 18 21 00 00 	sub    $0x2118,%rsp
  401043:	89 f5                	mov    %esi,%ebp
  401045:	64 48 8b 04 25 28 00 	mov    %fs:0x28,%rax
  40104c:	00 00 
  40104e:	48 89 84 24 08 21 00 	mov    %rax,0x2108(%rsp)
  401055:	00 
  401056:	31 c0                	xor    %eax,%eax
  401058:	89 3d ba 34 20 00    	mov    %edi,0x2034ba(%rip)        # 604518 <check_level>
  40105e:	8b 3d 04 31 20 00    	mov    0x203104(%rip),%edi        # 604168 <target_id>
  401064:	e8 0a 1d 00 00       	callq  402d73 <gencookie>
  401069:	89 05 b5 34 20 00    	mov    %eax,0x2034b5(%rip)        # 604524 <cookie>
  40106f:	89 c7                	mov    %eax,%edi
  401071:	e8 fd 1c 00 00       	callq  402d73 <gencookie>
  401076:	89 05 a4 34 20 00    	mov    %eax,0x2034a4(%rip)        # 604520 <authkey>
  40107c:	8b 05 e6 30 20 00    	mov    0x2030e6(%rip),%eax        # 604168 <target_id>
  401082:	8d 78 01             	lea    0x1(%rax),%edi
  401085:	e8 26 fc ff ff       	callq  400cb0 <srandom@plt>
  40108a:	e8 51 fd ff ff       	callq  400de0 <random@plt>
  40108f:	89 c7                	mov    %eax,%edi
  401091:	e8 03 03 00 00       	callq  401399 <scramble>
  401096:	89 c3                	mov    %eax,%ebx
  401098:	85 ed                	test   %ebp,%ebp
  40109a:	74 18                	je     4010b4 <initialize_target+0x7a>
  40109c:	bf 00 00 00 00       	mov    $0x0,%edi
  4010a1:	e8 2a fd ff ff       	callq  400dd0 <time@plt>
  4010a6:	89 c7                	mov    %eax,%edi
  4010a8:	e8 03 fc ff ff       	callq  400cb0 <srandom@plt>
  4010ad:	e8 2e fd ff ff       	callq  400de0 <random@plt>
  4010b2:	eb 05                	jmp    4010b9 <initialize_target+0x7f>
  4010b4:	b8 00 00 00 00       	mov    $0x0,%eax
  4010b9:	01 c3                	add    %eax,%ebx
  4010bb:	0f b7 db             	movzwl %bx,%ebx
  4010be:	8d 04 dd 00 01 00 00 	lea    0x100(,%rbx,8),%eax
  4010c5:	89 c0                	mov    %eax,%eax
  4010c7:	48 89 05 d2 33 20 00 	mov    %rax,0x2033d2(%rip)        # 6044a0 <buf_offset>
  4010ce:	c6 05 73 40 20 00 63 	movb   $0x63,0x204073(%rip)        # 605148 <target_prefix>
  4010d5:	83 3d cc 33 20 00 00 	cmpl   $0x0,0x2033cc(%rip)        # 6044a8 <notify>
  4010dc:	0f 84 bb 00 00 00    	je     40119d <initialize_target+0x163>
  4010e2:	83 3d 3f 34 20 00 00 	cmpl   $0x0,0x20343f(%rip)        # 604528 <is_checker>
  4010e9:	0f 85 ae 00 00 00    	jne    40119d <initialize_target+0x163>
  4010ef:	be 00 01 00 00       	mov    $0x100,%esi
  4010f4:	48 89 e7             	mov    %rsp,%rdi
  4010f7:	e8 64 fd ff ff       	callq  400e60 <gethostname@plt>
  4010fc:	85 c0                	test   %eax,%eax
  4010fe:	74 25                	je     401125 <initialize_target+0xeb>
  401100:	bf 08 2f 40 00       	mov    $0x402f08,%edi
  401105:	e8 d6 fb ff ff       	callq  400ce0 <puts@plt>
  40110a:	bf 08 00 00 00       	mov    $0x8,%edi
  40110f:	e8 5c fd ff ff       	callq  400e70 <exit@plt>
  401114:	48 89 e6             	mov    %rsp,%rsi
  401117:	e8 74 fb ff ff       	callq  400c90 <strcasecmp@plt>
  40111c:	85 c0                	test   %eax,%eax
  40111e:	74 21                	je     401141 <initialize_target+0x107>
  401120:	83 c3 01             	add    $0x1,%ebx
  401123:	eb 05                	jmp    40112a <initialize_target+0xf0>
  401125:	bb 00 00 00 00       	mov    $0x0,%ebx
  40112a:	48 63 c3             	movslq %ebx,%rax
  40112d:	48 8b 3c c5 80 41 60 	mov    0x604180(,%rax,8),%rdi
  401134:	00 
  401135:	48 85 ff             	test   %rdi,%rdi
  401138:	75 da                	jne    401114 <initialize_target+0xda>
  40113a:	b8 00 00 00 00       	mov    $0x0,%eax
  40113f:	eb 05                	jmp    401146 <initialize_target+0x10c>
  401141:	b8 01 00 00 00       	mov    $0x1,%eax
  401146:	85 c0                	test   %eax,%eax
  401148:	75 1c                	jne    401166 <initialize_target+0x12c>
  40114a:	48 89 e2             	mov    %rsp,%rdx
  40114d:	be 40 2f 40 00       	mov    $0x402f40,%esi
  401152:	bf 01 00 00 00       	mov    $0x1,%edi
  401157:	e8 c4 fc ff ff       	callq  400e20 <__printf_chk@plt>
  40115c:	bf 08 00 00 00       	mov    $0x8,%edi
  401161:	e8 0a fd ff ff       	callq  400e70 <exit@plt>
  401166:	48 8d bc 24 00 01 00 	lea    0x100(%rsp),%rdi
  40116d:	00 
  40116e:	e8 68 19 00 00       	callq  402adb <init_driver>
  401173:	85 c0                	test   %eax,%eax
  401175:	79 26                	jns    40119d <initialize_target+0x163>
  401177:	48 8d 94 24 00 01 00 	lea    0x100(%rsp),%rdx
  40117e:	00 
  40117f:	be 80 2f 40 00       	mov    $0x402f80,%esi
  401184:	bf 01 00 00 00       	mov    $0x1,%edi
  401189:	b8 00 00 00 00       	mov    $0x0,%eax
  40118e:	e8 8d fc ff ff       	callq  400e20 <__printf_chk@plt>
  401193:	bf 08 00 00 00       	mov    $0x8,%edi
  401198:	e8 d3 fc ff ff       	callq  400e70 <exit@plt>
  40119d:	48 8b 84 24 08 21 00 	mov    0x2108(%rsp),%rax
  4011a4:	00 
  4011a5:	64 48 33 04 25 28 00 	xor    %fs:0x28,%rax
  4011ac:	00 00 
  4011ae:	74 05                	je     4011b5 <initialize_target+0x17b>
  4011b0:	e8 4b fb ff ff       	callq  400d00 <__stack_chk_fail@plt>
  4011b5:	48 81 c4 18 21 00 00 	add    $0x2118,%rsp
  4011bc:	5b                   	pop    %rbx
  4011bd:	5d                   	pop    %rbp
  4011be:	c3                   	retq   

00000000004011bf <main>:
  4011bf:	41 56                	push   %r14
  4011c1:	41 55                	push   %r13
  4011c3:	41 54                	push   %r12
  4011c5:	55                   	push   %rbp
  4011c6:	53                   	push   %rbx
  4011c7:	41 89 fc             	mov    %edi,%r12d
  4011ca:	48 89 f3             	mov    %rsi,%rbx
  4011cd:	be 4e 1e 40 00       	mov    $0x401e4e,%esi
  4011d2:	bf 0b 00 00 00       	mov    $0xb,%edi
  4011d7:	e8 94 fb ff ff       	callq  400d70 <signal@plt>
  4011dc:	be 00 1e 40 00       	mov    $0x401e00,%esi
  4011e1:	bf 07 00 00 00       	mov    $0x7,%edi
  4011e6:	e8 85 fb ff ff       	callq  400d70 <signal@plt>
  4011eb:	be 9c 1e 40 00       	mov    $0x401e9c,%esi
  4011f0:	bf 04 00 00 00       	mov    $0x4,%edi
  4011f5:	e8 76 fb ff ff       	callq  400d70 <signal@plt>
  4011fa:	83 3d 27 33 20 00 00 	cmpl   $0x0,0x203327(%rip)        # 604528 <is_checker>
  401201:	74 20                	je     401223 <main+0x64>
  401203:	be ea 1e 40 00       	mov    $0x401eea,%esi
  401208:	bf 0e 00 00 00       	mov    $0xe,%edi
  40120d:	e8 5e fb ff ff       	callq  400d70 <signal@plt>
  401212:	bf 05 00 00 00       	mov    $0x5,%edi
  401217:	e8 14 fb ff ff       	callq  400d30 <alarm@plt>
  40121c:	bd 4a 30 40 00       	mov    $0x40304a,%ebp
  401221:	eb 05                	jmp    401228 <main+0x69>
  401223:	bd 45 30 40 00       	mov    $0x403045,%ebp
  401228:	48 8b 05 91 32 20 00 	mov    0x203291(%rip),%rax        # 6044c0 <stdin@@GLIBC_2.2.5>
  40122f:	48 89 05 da 32 20 00 	mov    %rax,0x2032da(%rip)        # 604510 <infile>
  401236:	41 bd 00 00 00 00    	mov    $0x0,%r13d
  40123c:	41 be 00 00 00 00    	mov    $0x0,%r14d
  401242:	e9 c6 00 00 00       	jmpq   40130d <main+0x14e>
  401247:	83 e8 61             	sub    $0x61,%eax
  40124a:	3c 10                	cmp    $0x10,%al
  40124c:	0f 87 9c 00 00 00    	ja     4012ee <main+0x12f>
  401252:	0f b6 c0             	movzbl %al,%eax
  401255:	ff 24 c5 90 30 40 00 	jmpq   *0x403090(,%rax,8)
  40125c:	48 8b 3b             	mov    (%rbx),%rdi
  40125f:	e8 4c fd ff ff       	callq  400fb0 <usage>
  401264:	be 61 31 40 00       	mov    $0x403161,%esi
  401269:	48 8b 3d 70 32 20 00 	mov    0x203270(%rip),%rdi        # 6044e0 <optarg@@GLIBC_2.2.5>
  401270:	e8 bb fb ff ff       	callq  400e30 <fopen@plt>
  401275:	48 89 05 94 32 20 00 	mov    %rax,0x203294(%rip)        # 604510 <infile>
  40127c:	48 85 c0             	test   %rax,%rax
  40127f:	0f 85 88 00 00 00    	jne    40130d <main+0x14e>
  401285:	48 8b 0d 54 32 20 00 	mov    0x203254(%rip),%rcx        # 6044e0 <optarg@@GLIBC_2.2.5>
  40128c:	ba 52 30 40 00       	mov    $0x403052,%edx
  401291:	be 01 00 00 00       	mov    $0x1,%esi
  401296:	48 8b 3d 4b 32 20 00 	mov    0x20324b(%rip),%rdi        # 6044e8 <stderr@@GLIBC_2.2.5>
  40129d:	e8 ee fb ff ff       	callq  400e90 <__fprintf_chk@plt>
  4012a2:	b8 01 00 00 00       	mov    $0x1,%eax
  4012a7:	e9 e4 00 00 00       	jmpq   401390 <main+0x1d1>
  4012ac:	ba 10 00 00 00       	mov    $0x10,%edx
  4012b1:	be 00 00 00 00       	mov    $0x0,%esi
  4012b6:	48 8b 3d 23 32 20 00 	mov    0x203223(%rip),%rdi        # 6044e0 <optarg@@GLIBC_2.2.5>
  4012bd:	e8 8e fb ff ff       	callq  400e50 <strtoul@plt>
  4012c2:	41 89 c6             	mov    %eax,%r14d
  4012c5:	eb 46                	jmp    40130d <main+0x14e>
  4012c7:	ba 0a 00 00 00       	mov    $0xa,%edx
  4012cc:	be 00 00 00 00       	mov    $0x0,%esi
  4012d1:	48 8b 3d 08 32 20 00 	mov    0x203208(%rip),%rdi        # 6044e0 <optarg@@GLIBC_2.2.5>
  4012d8:	e8 d3 fa ff ff       	callq  400db0 <strtol@plt>
  4012dd:	41 89 c5             	mov    %eax,%r13d
  4012e0:	eb 2b                	jmp    40130d <main+0x14e>
  4012e2:	c7 05 bc 31 20 00 00 	movl   $0x0,0x2031bc(%rip)        # 6044a8 <notify>
  4012e9:	00 00 00 
  4012ec:	eb 1f                	jmp    40130d <main+0x14e>
  4012ee:	0f be d2             	movsbl %dl,%edx
  4012f1:	be 6f 30 40 00       	mov    $0x40306f,%esi
  4012f6:	bf 01 00 00 00       	mov    $0x1,%edi
  4012fb:	b8 00 00 00 00       	mov    $0x0,%eax
  401300:	e8 1b fb ff ff       	callq  400e20 <__printf_chk@plt>
  401305:	48 8b 3b             	mov    (%rbx),%rdi
  401308:	e8 a3 fc ff ff       	callq  400fb0 <usage>
  40130d:	48 89 ea             	mov    %rbp,%rdx
  401310:	48 89 de             	mov    %rbx,%rsi
  401313:	44 89 e7             	mov    %r12d,%edi
  401316:	e8 25 fb ff ff       	callq  400e40 <getopt@plt>
  40131b:	89 c2                	mov    %eax,%edx
  40131d:	3c ff                	cmp    $0xff,%al
  40131f:	0f 85 22 ff ff ff    	jne    401247 <main+0x88>
  401325:	be 00 00 00 00       	mov    $0x0,%esi
  40132a:	44 89 ef             	mov    %r13d,%edi
  40132d:	e8 08 fd ff ff       	callq  40103a <initialize_target>
  401332:	83 3d ef 31 20 00 00 	cmpl   $0x0,0x2031ef(%rip)        # 604528 <is_checker>
  401339:	74 2a                	je     401365 <main+0x1a6>
  40133b:	44 3b 35 de 31 20 00 	cmp    0x2031de(%rip),%r14d        # 604520 <authkey>
  401342:	74 21                	je     401365 <main+0x1a6>
  401344:	44 89 f2             	mov    %r14d,%edx
  401347:	be a8 2f 40 00       	mov    $0x402fa8,%esi
  40134c:	bf 01 00 00 00       	mov    $0x1,%edi
  401351:	b8 00 00 00 00       	mov    $0x0,%eax
  401356:	e8 c5 fa ff ff       	callq  400e20 <__printf_chk@plt>
  40135b:	b8 00 00 00 00       	mov    $0x0,%eax
  401360:	e8 26 07 00 00       	callq  401a8b <check_fail>
  401365:	8b 15 b9 31 20 00    	mov    0x2031b9(%rip),%edx        # 604524 <cookie>
  40136b:	be 82 30 40 00       	mov    $0x403082,%esi
  401370:	bf 01 00 00 00       	mov    $0x1,%edi
  401375:	b8 00 00 00 00       	mov    $0x0,%eax
  40137a:	e8 a1 fa ff ff       	callq  400e20 <__printf_chk@plt>
  40137f:	48 8b 3d 1a 31 20 00 	mov    0x20311a(%rip),%rdi        # 6044a0 <buf_offset>
  401386:	e8 5f 0c 00 00       	callq  401fea <stable_launch>
  40138b:	b8 00 00 00 00       	mov    $0x0,%eax
  401390:	5b                   	pop    %rbx
  401391:	5d                   	pop    %rbp
  401392:	41 5c                	pop    %r12
  401394:	41 5d                	pop    %r13
  401396:	41 5e                	pop    %r14
  401398:	c3                   	retq   

0000000000401399 <scramble>:
  401399:	b8 00 00 00 00       	mov    $0x0,%eax
  40139e:	eb 11                	jmp    4013b1 <scramble+0x18>
  4013a0:	69 c8 ed 8a 00 00    	imul   $0x8aed,%eax,%ecx
  4013a6:	01 f9                	add    %edi,%ecx
  4013a8:	89 c2                	mov    %eax,%edx
  4013aa:	89 4c 94 c8          	mov    %ecx,-0x38(%rsp,%rdx,4)
  4013ae:	83 c0 01             	add    $0x1,%eax
  4013b1:	83 f8 09             	cmp    $0x9,%eax
  4013b4:	76 ea                	jbe    4013a0 <scramble+0x7>
  4013b6:	8b 44 24 ec          	mov    -0x14(%rsp),%eax
  4013ba:	69 c0 d8 56 00 00    	imul   $0x56d8,%eax,%eax
  4013c0:	89 44 24 ec          	mov    %eax,-0x14(%rsp)
  4013c4:	8b 44 24 e0          	mov    -0x20(%rsp),%eax
  4013c8:	69 c0 f0 a4 00 00    	imul   $0xa4f0,%eax,%eax
  4013ce:	89 44 24 e0          	mov    %eax,-0x20(%rsp)
  4013d2:	8b 44 24 ec          	mov    -0x14(%rsp),%eax
  4013d6:	69 c0 72 6a 00 00    	imul   $0x6a72,%eax,%eax
  4013dc:	89 44 24 ec          	mov    %eax,-0x14(%rsp)
  4013e0:	8b 44 24 e0          	mov    -0x20(%rsp),%eax
  4013e4:	69 c0 fa c6 00 00    	imul   $0xc6fa,%eax,%eax
  4013ea:	89 44 24 e0          	mov    %eax,-0x20(%rsp)
  4013ee:	8b 44 24 e4          	mov    -0x1c(%rsp),%eax
  4013f2:	69 c0 27 b9 00 00    	imul   $0xb927,%eax,%eax
  4013f8:	89 44 24 e4          	mov    %eax,-0x1c(%rsp)
  4013fc:	8b 44 24 e4          	mov    -0x1c(%rsp),%eax
  401400:	69 c0 83 0d 00 00    	imul   $0xd83,%eax,%eax
  401406:	89 44 24 e4          	mov    %eax,-0x1c(%rsp)
  40140a:	8b 44 24 cc          	mov    -0x34(%rsp),%eax
  40140e:	69 c0 4d b0 00 00    	imul   $0xb04d,%eax,%eax
  401414:	89 44 24 cc          	mov    %eax,-0x34(%rsp)
  401418:	8b 44 24 ec          	mov    -0x14(%rsp),%eax
  40141c:	69 c0 19 eb 00 00    	imul   $0xeb19,%eax,%eax
  401422:	89 44 24 ec          	mov    %eax,-0x14(%rsp)
  401426:	8b 44 24 dc          	mov    -0x24(%rsp),%eax
  40142a:	69 c0 7c 3d 00 00    	imul   $0x3d7c,%eax,%eax
  401430:	89 44 24 dc          	mov    %eax,-0x24(%rsp)
  401434:	8b 44 24 ec          	mov    -0x14(%rsp),%eax
  401438:	89 c2                	mov    %eax,%edx
  40143a:	c1 e2 0c             	shl    $0xc,%edx
  40143d:	29 c2                	sub    %eax,%edx
  40143f:	89 54 24 ec          	mov    %edx,-0x14(%rsp)
  401443:	8b 44 24 c8          	mov    -0x38(%rsp),%eax
  401447:	69 c0 4e ff 00 00    	imul   $0xff4e,%eax,%eax
  40144d:	89 44 24 c8          	mov    %eax,-0x38(%rsp)
  401451:	8b 44 24 ec          	mov    -0x14(%rsp),%eax
  401455:	69 c0 b4 8e 00 00    	imul   $0x8eb4,%eax,%eax
  40145b:	89 44 24 ec          	mov    %eax,-0x14(%rsp)
  40145f:	8b 44 24 dc          	mov    -0x24(%rsp),%eax
  401463:	69 c0 59 ae 00 00    	imul   $0xae59,%eax,%eax
  401469:	89 44 24 dc          	mov    %eax,-0x24(%rsp)
  40146d:	8b 44 24 ec          	mov    -0x14(%rsp),%eax
  401471:	69 c0 c7 26 00 00    	imul   $0x26c7,%eax,%eax
  401477:	89 44 24 ec          	mov    %eax,-0x14(%rsp)
  40147b:	8b 44 24 d0          	mov    -0x30(%rsp),%eax
  40147f:	69 c0 9b e4 00 00    	imul   $0xe49b,%eax,%eax
  401485:	89 44 24 d0          	mov    %eax,-0x30(%rsp)
  401489:	8b 44 24 d0          	mov    -0x30(%rsp),%eax
  40148d:	69 c0 b0 b0 00 00    	imul   $0xb0b0,%eax,%eax
  401493:	89 44 24 d0          	mov    %eax,-0x30(%rsp)
  401497:	8b 44 24 e8          	mov    -0x18(%rsp),%eax
  40149b:	69 c0 59 34 00 00    	imul   $0x3459,%eax,%eax
  4014a1:	89 44 24 e8          	mov    %eax,-0x18(%rsp)
  4014a5:	8b 44 24 ec          	mov    -0x14(%rsp),%eax
  4014a9:	69 c0 56 c2 00 00    	imul   $0xc256,%eax,%eax
  4014af:	89 44 24 ec          	mov    %eax,-0x14(%rsp)
  4014b3:	8b 44 24 d8          	mov    -0x28(%rsp),%eax
  4014b7:	69 c0 e1 67 00 00    	imul   $0x67e1,%eax,%eax
  4014bd:	89 44 24 d8          	mov    %eax,-0x28(%rsp)
  4014c1:	8b 44 24 d4          	mov    -0x2c(%rsp),%eax
  4014c5:	69 c0 41 83 00 00    	imul   $0x8341,%eax,%eax
  4014cb:	89 44 24 d4          	mov    %eax,-0x2c(%rsp)
  4014cf:	8b 44 24 c8          	mov    -0x38(%rsp),%eax
  4014d3:	69 c0 4b 20 00 00    	imul   $0x204b,%eax,%eax
  4014d9:	89 44 24 c8          	mov    %eax,-0x38(%rsp)
  4014dd:	8b 44 24 cc          	mov    -0x34(%rsp),%eax
  4014e1:	69 c0 f2 3a 00 00    	imul   $0x3af2,%eax,%eax
  4014e7:	89 44 24 cc          	mov    %eax,-0x34(%rsp)
  4014eb:	8b 44 24 ec          	mov    -0x14(%rsp),%eax
  4014ef:	69 c0 79 32 00 00    	imul   $0x3279,%eax,%eax
  4014f5:	89 44 24 ec          	mov    %eax,-0x14(%rsp)
  4014f9:	8b 44 24 cc          	mov    -0x34(%rsp),%eax
  4014fd:	69 c0 64 fe 00 00    	imul   $0xfe64,%eax,%eax
  401503:	89 44 24 cc          	mov    %eax,-0x34(%rsp)
  401507:	8b 44 24 cc          	mov    -0x34(%rsp),%eax
  40150b:	69 c0 d1 10 00 00    	imul   $0x10d1,%eax,%eax
  401511:	89 44 24 cc          	mov    %eax,-0x34(%rsp)
  401515:	8b 44 24 e4          	mov    -0x1c(%rsp),%eax
  401519:	69 c0 16 f3 00 00    	imul   $0xf316,%eax,%eax
  40151f:	89 44 24 e4          	mov    %eax,-0x1c(%rsp)
  401523:	8b 44 24 ec          	mov    -0x14(%rsp),%eax
  401527:	69 c0 ef 04 00 00    	imul   $0x4ef,%eax,%eax
  40152d:	89 44 24 ec          	mov    %eax,-0x14(%rsp)
  401531:	8b 44 24 e0          	mov    -0x20(%rsp),%eax
  401535:	69 c0 1c d5 00 00    	imul   $0xd51c,%eax,%eax
  40153b:	89 44 24 e0          	mov    %eax,-0x20(%rsp)
  40153f:	8b 44 24 cc          	mov    -0x34(%rsp),%eax
  401543:	89 c2                	mov    %eax,%edx
  401545:	c1 e2 0e             	shl    $0xe,%edx
  401548:	8d 04 42             	lea    (%rdx,%rax,2),%eax
  40154b:	89 44 24 cc          	mov    %eax,-0x34(%rsp)
  40154f:	8b 44 24 e8          	mov    -0x18(%rsp),%eax
  401553:	69 c0 0b d9 00 00    	imul   $0xd90b,%eax,%eax
  401559:	89 44 24 e8          	mov    %eax,-0x18(%rsp)
  40155d:	8b 44 24 d0          	mov    -0x30(%rsp),%eax
  401561:	69 c0 ef 21 00 00    	imul   $0x21ef,%eax,%eax
  401567:	89 44 24 d0          	mov    %eax,-0x30(%rsp)
  40156b:	8b 44 24 e8          	mov    -0x18(%rsp),%eax
  40156f:	69 c0 12 60 00 00    	imul   $0x6012,%eax,%eax
  401575:	89 44 24 e8          	mov    %eax,-0x18(%rsp)
  401579:	8b 44 24 c8          	mov    -0x38(%rsp),%eax
  40157d:	69 c0 5c df 00 00    	imul   $0xdf5c,%eax,%eax
  401583:	89 44 24 c8          	mov    %eax,-0x38(%rsp)
  401587:	8b 44 24 d0          	mov    -0x30(%rsp),%eax
  40158b:	69 c0 13 f5 00 00    	imul   $0xf513,%eax,%eax
  401591:	89 44 24 d0          	mov    %eax,-0x30(%rsp)
  401595:	8b 44 24 e4          	mov    -0x1c(%rsp),%eax
  401599:	69 c0 b8 ab 00 00    	imul   $0xabb8,%eax,%eax
  40159f:	89 44 24 e4          	mov    %eax,-0x1c(%rsp)
  4015a3:	8b 44 24 e4          	mov    -0x1c(%rsp),%eax
  4015a7:	69 c0 47 68 00 00    	imul   $0x6847,%eax,%eax
  4015ad:	89 44 24 e4          	mov    %eax,-0x1c(%rsp)
  4015b1:	8b 44 24 e4          	mov    -0x1c(%rsp),%eax
  4015b5:	69 c0 19 09 00 00    	imul   $0x919,%eax,%eax
  4015bb:	89 44 24 e4          	mov    %eax,-0x1c(%rsp)
  4015bf:	8b 44 24 d4          	mov    -0x2c(%rsp),%eax
  4015c3:	69 c0 9c 9c 00 00    	imul   $0x9c9c,%eax,%eax
  4015c9:	89 44 24 d4          	mov    %eax,-0x2c(%rsp)
  4015cd:	8b 44 24 c8          	mov    -0x38(%rsp),%eax
  4015d1:	69 c0 45 c9 00 00    	imul   $0xc945,%eax,%eax
  4015d7:	89 44 24 c8          	mov    %eax,-0x38(%rsp)
  4015db:	8b 44 24 e0          	mov    -0x20(%rsp),%eax
  4015df:	69 c0 88 ab 00 00    	imul   $0xab88,%eax,%eax
  4015e5:	89 44 24 e0          	mov    %eax,-0x20(%rsp)
  4015e9:	8b 44 24 ec          	mov    -0x14(%rsp),%eax
  4015ed:	69 c0 63 a9 00 00    	imul   $0xa963,%eax,%eax
  4015f3:	89 44 24 ec          	mov    %eax,-0x14(%rsp)
  4015f7:	8b 44 24 e0          	mov    -0x20(%rsp),%eax
  4015fb:	69 c0 35 ea 00 00    	imul   $0xea35,%eax,%eax
  401601:	89 44 24 e0          	mov    %eax,-0x20(%rsp)
  401605:	8b 44 24 d4          	mov    -0x2c(%rsp),%eax
  401609:	69 c0 6a 20 00 00    	imul   $0x206a,%eax,%eax
  40160f:	89 44 24 d4          	mov    %eax,-0x2c(%rsp)
  401613:	8b 44 24 e0          	mov    -0x20(%rsp),%eax
  401617:	69 c0 9b 61 00 00    	imul   $0x619b,%eax,%eax
  40161d:	89 44 24 e0          	mov    %eax,-0x20(%rsp)
  401621:	8b 44 24 d0          	mov    -0x30(%rsp),%eax
  401625:	69 c0 34 bb 00 00    	imul   $0xbb34,%eax,%eax
  40162b:	89 44 24 d0          	mov    %eax,-0x30(%rsp)
  40162f:	8b 44 24 cc          	mov    -0x34(%rsp),%eax
  401633:	69 c0 0a 85 00 00    	imul   $0x850a,%eax,%eax
  401639:	89 44 24 cc          	mov    %eax,-0x34(%rsp)
  40163d:	8b 44 24 e0          	mov    -0x20(%rsp),%eax
  401641:	69 c0 62 c4 00 00    	imul   $0xc462,%eax,%eax
  401647:	89 44 24 e0          	mov    %eax,-0x20(%rsp)
  40164b:	8b 44 24 dc          	mov    -0x24(%rsp),%eax
  40164f:	69 c0 6b 33 00 00    	imul   $0x336b,%eax,%eax
  401655:	89 44 24 dc          	mov    %eax,-0x24(%rsp)
  401659:	8b 44 24 c8          	mov    -0x38(%rsp),%eax
  40165d:	69 c0 84 07 00 00    	imul   $0x784,%eax,%eax
  401663:	89 44 24 c8          	mov    %eax,-0x38(%rsp)
  401667:	8b 44 24 d0          	mov    -0x30(%rsp),%eax
  40166b:	69 c0 fd ea 00 00    	imul   $0xeafd,%eax,%eax
  401671:	89 44 24 d0          	mov    %eax,-0x30(%rsp)
  401675:	8b 44 24 d8          	mov    -0x28(%rsp),%eax
  401679:	69 c0 d3 a0 00 00    	imul   $0xa0d3,%eax,%eax
  40167f:	89 44 24 d8          	mov    %eax,-0x28(%rsp)
  401683:	8b 44 24 ec          	mov    -0x14(%rsp),%eax
  401687:	69 c0 40 7f 00 00    	imul   $0x7f40,%eax,%eax
  40168d:	89 44 24 ec          	mov    %eax,-0x14(%rsp)
  401691:	8b 44 24 d0          	mov    -0x30(%rsp),%eax
  401695:	69 c0 7d f6 00 00    	imul   $0xf67d,%eax,%eax
  40169b:	89 44 24 d0          	mov    %eax,-0x30(%rsp)
  40169f:	8b 44 24 c8          	mov    -0x38(%rsp),%eax
  4016a3:	69 c0 80 e5 00 00    	imul   $0xe580,%eax,%eax
  4016a9:	89 44 24 c8          	mov    %eax,-0x38(%rsp)
  4016ad:	8b 44 24 e8          	mov    -0x18(%rsp),%eax
  4016b1:	69 c0 dd b6 00 00    	imul   $0xb6dd,%eax,%eax
  4016b7:	89 44 24 e8          	mov    %eax,-0x18(%rsp)
  4016bb:	8b 44 24 e8          	mov    -0x18(%rsp),%eax
  4016bf:	69 c0 d8 99 00 00    	imul   $0x99d8,%eax,%eax
  4016c5:	89 44 24 e8          	mov    %eax,-0x18(%rsp)
  4016c9:	8b 44 24 cc          	mov    -0x34(%rsp),%eax
  4016cd:	69 c0 a7 2f 00 00    	imul   $0x2fa7,%eax,%eax
  4016d3:	89 44 24 cc          	mov    %eax,-0x34(%rsp)
  4016d7:	8b 44 24 e4          	mov    -0x1c(%rsp),%eax
  4016db:	69 c0 93 0e 00 00    	imul   $0xe93,%eax,%eax
  4016e1:	89 44 24 e4          	mov    %eax,-0x1c(%rsp)
  4016e5:	8b 44 24 c8          	mov    -0x38(%rsp),%eax
  4016e9:	69 c0 5e 43 00 00    	imul   $0x435e,%eax,%eax
  4016ef:	89 44 24 c8          	mov    %eax,-0x38(%rsp)
  4016f3:	8b 44 24 d0          	mov    -0x30(%rsp),%eax
  4016f7:	69 c0 7e b0 00 00    	imul   $0xb07e,%eax,%eax
  4016fd:	89 44 24 d0          	mov    %eax,-0x30(%rsp)
  401701:	8b 44 24 c8          	mov    -0x38(%rsp),%eax
  401705:	69 c0 d4 aa 00 00    	imul   $0xaad4,%eax,%eax
  40170b:	89 44 24 c8          	mov    %eax,-0x38(%rsp)
  40170f:	8b 44 24 e4          	mov    -0x1c(%rsp),%eax
  401713:	69 c0 b5 db 00 00    	imul   $0xdbb5,%eax,%eax
  401719:	89 44 24 e4          	mov    %eax,-0x1c(%rsp)
  40171d:	8b 44 24 d8          	mov    -0x28(%rsp),%eax
  401721:	69 c0 a5 1a 00 00    	imul   $0x1aa5,%eax,%eax
  401727:	89 44 24 d8          	mov    %eax,-0x28(%rsp)
  40172b:	8b 44 24 e4          	mov    -0x1c(%rsp),%eax
  40172f:	69 c0 f6 12 00 00    	imul   $0x12f6,%eax,%eax
  401735:	89 44 24 e4          	mov    %eax,-0x1c(%rsp)
  401739:	8b 44 24 d4          	mov    -0x2c(%rsp),%eax
  40173d:	69 c0 9f 37 00 00    	imul   $0x379f,%eax,%eax
  401743:	89 44 24 d4          	mov    %eax,-0x2c(%rsp)
  401747:	8b 44 24 e0          	mov    -0x20(%rsp),%eax
  40174b:	69 c0 66 d5 00 00    	imul   $0xd566,%eax,%eax
  401751:	89 44 24 e0          	mov    %eax,-0x20(%rsp)
  401755:	8b 44 24 e0          	mov    -0x20(%rsp),%eax
  401759:	69 c0 37 51 00 00    	imul   $0x5137,%eax,%eax
  40175f:	89 44 24 e0          	mov    %eax,-0x20(%rsp)
  401763:	8b 44 24 c8          	mov    -0x38(%rsp),%eax
  401767:	69 c0 5f 82 00 00    	imul   $0x825f,%eax,%eax
  40176d:	89 44 24 c8          	mov    %eax,-0x38(%rsp)
  401771:	8b 44 24 e4          	mov    -0x1c(%rsp),%eax
  401775:	69 c0 82 70 00 00    	imul   $0x7082,%eax,%eax
  40177b:	89 44 24 e4          	mov    %eax,-0x1c(%rsp)
  40177f:	8b 44 24 dc          	mov    -0x24(%rsp),%eax
  401783:	69 c0 77 07 00 00    	imul   $0x777,%eax,%eax
  401789:	89 44 24 dc          	mov    %eax,-0x24(%rsp)
  40178d:	8b 44 24 cc          	mov    -0x34(%rsp),%eax
  401791:	69 c0 e8 f8 00 00    	imul   $0xf8e8,%eax,%eax
  401797:	89 44 24 cc          	mov    %eax,-0x34(%rsp)
  40179b:	8b 44 24 dc          	mov    -0x24(%rsp),%eax
  40179f:	69 c0 a0 87 00 00    	imul   $0x87a0,%eax,%eax
  4017a5:	89 44 24 dc          	mov    %eax,-0x24(%rsp)
  4017a9:	8b 44 24 cc          	mov    -0x34(%rsp),%eax
  4017ad:	69 c0 5d 25 00 00    	imul   $0x255d,%eax,%eax
  4017b3:	89 44 24 cc          	mov    %eax,-0x34(%rsp)
  4017b7:	8b 44 24 ec          	mov    -0x14(%rsp),%eax
  4017bb:	69 c0 a1 78 00 00    	imul   $0x78a1,%eax,%eax
  4017c1:	89 44 24 ec          	mov    %eax,-0x14(%rsp)
  4017c5:	8b 44 24 ec          	mov    -0x14(%rsp),%eax
  4017c9:	69 c0 61 06 00 00    	imul   $0x661,%eax,%eax
  4017cf:	89 44 24 ec          	mov    %eax,-0x14(%rsp)
  4017d3:	8b 44 24 e4          	mov    -0x1c(%rsp),%eax
  4017d7:	69 c0 4e 67 00 00    	imul   $0x674e,%eax,%eax
  4017dd:	89 44 24 e4          	mov    %eax,-0x1c(%rsp)
  4017e1:	8b 44 24 e4          	mov    -0x1c(%rsp),%eax
  4017e5:	69 c0 a7 5e 00 00    	imul   $0x5ea7,%eax,%eax
  4017eb:	89 44 24 e4          	mov    %eax,-0x1c(%rsp)
  4017ef:	8b 44 24 c8          	mov    -0x38(%rsp),%eax
  4017f3:	69 c0 6c 20 00 00    	imul   $0x206c,%eax,%eax
  4017f9:	89 44 24 c8          	mov    %eax,-0x38(%rsp)
  4017fd:	8b 44 24 c8          	mov    -0x38(%rsp),%eax
  401801:	69 c0 24 52 00 00    	imul   $0x5224,%eax,%eax
  401807:	89 44 24 c8          	mov    %eax,-0x38(%rsp)
  40180b:	8b 44 24 cc          	mov    -0x34(%rsp),%eax
  40180f:	69 c0 76 9b 00 00    	imul   $0x9b76,%eax,%eax
  401815:	89 44 24 cc          	mov    %eax,-0x34(%rsp)
  401819:	ba 00 00 00 00       	mov    $0x0,%edx
  40181e:	b8 00 00 00 00       	mov    $0x0,%eax
  401823:	eb 0b                	jmp    401830 <scramble+0x497>
  401825:	89 d1                	mov    %edx,%ecx
  401827:	8b 4c 8c c8          	mov    -0x38(%rsp,%rcx,4),%ecx
  40182b:	01 c8                	add    %ecx,%eax
  40182d:	83 c2 01             	add    $0x1,%edx
  401830:	83 fa 09             	cmp    $0x9,%edx
  401833:	76 f0                	jbe    401825 <scramble+0x48c>
  401835:	f3 c3                	repz retq 

0000000000401837 <getbuf>:
  401837:	48 83 ec 18          	sub    $0x18,%rsp
  40183b:	48 89 e7             	mov    %rsp,%rdi
  40183e:	e8 7d 02 00 00       	callq  401ac0 <Gets>
  401843:	b8 01 00 00 00       	mov    $0x1,%eax
  401848:	48 83 c4 18          	add    $0x18,%rsp
  40184c:	c3                   	retq   

000000000040184d <touch1>:
  40184d:	48 83 ec 08          	sub    $0x8,%rsp
  401851:	c7 05 c1 2c 20 00 01 	movl   $0x1,0x202cc1(%rip)        # 60451c <vlevel>
  401858:	00 00 00 
  40185b:	bf 7a 31 40 00       	mov    $0x40317a,%edi
  401860:	e8 7b f4 ff ff       	callq  400ce0 <puts@plt>
  401865:	bf 01 00 00 00       	mov    $0x1,%edi
  40186a:	e8 a7 04 00 00       	callq  401d16 <validate>
  40186f:	bf 00 00 00 00       	mov    $0x0,%edi
  401874:	e8 f7 f5 ff ff       	callq  400e70 <exit@plt>

0000000000401879 <touch2>:
  401879:	48 83 ec 08          	sub    $0x8,%rsp
  40187d:	89 fa                	mov    %edi,%edx
  40187f:	c7 05 93 2c 20 00 02 	movl   $0x2,0x202c93(%rip)        # 60451c <vlevel>
  401886:	00 00 00 
  401889:	3b 3d 95 2c 20 00    	cmp    0x202c95(%rip),%edi        # 604524 <cookie>
  40188f:	75 20                	jne    4018b1 <touch2+0x38>
  401891:	be a0 31 40 00       	mov    $0x4031a0,%esi
  401896:	bf 01 00 00 00       	mov    $0x1,%edi
  40189b:	b8 00 00 00 00       	mov    $0x0,%eax
  4018a0:	e8 7b f5 ff ff       	callq  400e20 <__printf_chk@plt>
  4018a5:	bf 02 00 00 00       	mov    $0x2,%edi
  4018aa:	e8 67 04 00 00       	callq  401d16 <validate>
  4018af:	eb 1e                	jmp    4018cf <touch2+0x56>
  4018b1:	be c8 31 40 00       	mov    $0x4031c8,%esi
  4018b6:	bf 01 00 00 00       	mov    $0x1,%edi
  4018bb:	b8 00 00 00 00       	mov    $0x0,%eax
  4018c0:	e8 5b f5 ff ff       	callq  400e20 <__printf_chk@plt>
  4018c5:	bf 02 00 00 00       	mov    $0x2,%edi
  4018ca:	e8 09 05 00 00       	callq  401dd8 <fail>
  4018cf:	bf 00 00 00 00       	mov    $0x0,%edi
  4018d4:	e8 97 f5 ff ff       	callq  400e70 <exit@plt>

00000000004018d9 <hexmatch>:
  4018d9:	41 54                	push   %r12
  4018db:	55                   	push   %rbp
  4018dc:	53                   	push   %rbx
  4018dd:	48 83 c4 80          	add    $0xffffffffffffff80,%rsp
  4018e1:	41 89 fc             	mov    %edi,%r12d
  4018e4:	48 89 f5             	mov    %rsi,%rbp
  4018e7:	64 48 8b 04 25 28 00 	mov    %fs:0x28,%rax
  4018ee:	00 00 
  4018f0:	48 89 44 24 78       	mov    %rax,0x78(%rsp)
  4018f5:	31 c0                	xor    %eax,%eax
  4018f7:	e8 e4 f4 ff ff       	callq  400de0 <random@plt>
  4018fc:	48 89 c1             	mov    %rax,%rcx
  4018ff:	48 ba 0b d7 a3 70 3d 	movabs $0xa3d70a3d70a3d70b,%rdx
  401906:	0a d7 a3 
  401909:	48 f7 ea             	imul   %rdx
  40190c:	48 01 ca             	add    %rcx,%rdx
  40190f:	48 c1 fa 06          	sar    $0x6,%rdx
  401913:	48 89 c8             	mov    %rcx,%rax
  401916:	48 c1 f8 3f          	sar    $0x3f,%rax
  40191a:	48 29 c2             	sub    %rax,%rdx
  40191d:	48 8d 04 92          	lea    (%rdx,%rdx,4),%rax
  401921:	48 8d 04 80          	lea    (%rax,%rax,4),%rax
  401925:	48 c1 e0 02          	shl    $0x2,%rax
  401929:	48 29 c1             	sub    %rax,%rcx
  40192c:	48 8d 1c 0c          	lea    (%rsp,%rcx,1),%rbx
  401930:	45 89 e0             	mov    %r12d,%r8d
  401933:	b9 97 31 40 00       	mov    $0x403197,%ecx
  401938:	48 c7 c2 ff ff ff ff 	mov    $0xffffffffffffffff,%rdx
  40193f:	be 01 00 00 00       	mov    $0x1,%esi
  401944:	48 89 df             	mov    %rbx,%rdi
  401947:	b8 00 00 00 00       	mov    $0x0,%eax
  40194c:	e8 4f f5 ff ff       	callq  400ea0 <__sprintf_chk@plt>
  401951:	ba 09 00 00 00       	mov    $0x9,%edx
  401956:	48 89 de             	mov    %rbx,%rsi
  401959:	48 89 ef             	mov    %rbp,%rdi
  40195c:	e8 5f f3 ff ff       	callq  400cc0 <strncmp@plt>
  401961:	85 c0                	test   %eax,%eax
  401963:	0f 94 c0             	sete   %al
  401966:	0f b6 c0             	movzbl %al,%eax
  401969:	48 8b 74 24 78       	mov    0x78(%rsp),%rsi
  40196e:	64 48 33 34 25 28 00 	xor    %fs:0x28,%rsi
  401975:	00 00 
  401977:	74 05                	je     40197e <hexmatch+0xa5>
  401979:	e8 82 f3 ff ff       	callq  400d00 <__stack_chk_fail@plt>
  40197e:	48 83 ec 80          	sub    $0xffffffffffffff80,%rsp
  401982:	5b                   	pop    %rbx
  401983:	5d                   	pop    %rbp
  401984:	41 5c                	pop    %r12
  401986:	c3                   	retq   

0000000000401987 <touch3>:
  401987:	53                   	push   %rbx
  401988:	48 89 fb             	mov    %rdi,%rbx
  40198b:	c7 05 87 2b 20 00 03 	movl   $0x3,0x202b87(%rip)        # 60451c <vlevel>
  401992:	00 00 00 
  401995:	48 89 fe             	mov    %rdi,%rsi
  401998:	8b 3d 86 2b 20 00    	mov    0x202b86(%rip),%edi        # 604524 <cookie>
  40199e:	e8 36 ff ff ff       	callq  4018d9 <hexmatch>
  4019a3:	85 c0                	test   %eax,%eax
  4019a5:	74 23                	je     4019ca <touch3+0x43>
  4019a7:	48 89 da             	mov    %rbx,%rdx
  4019aa:	be f0 31 40 00       	mov    $0x4031f0,%esi
  4019af:	bf 01 00 00 00       	mov    $0x1,%edi
  4019b4:	b8 00 00 00 00       	mov    $0x0,%eax
  4019b9:	e8 62 f4 ff ff       	callq  400e20 <__printf_chk@plt>
  4019be:	bf 03 00 00 00       	mov    $0x3,%edi
  4019c3:	e8 4e 03 00 00       	callq  401d16 <validate>
  4019c8:	eb 21                	jmp    4019eb <touch3+0x64>
  4019ca:	48 89 da             	mov    %rbx,%rdx
  4019cd:	be 18 32 40 00       	mov    $0x403218,%esi
  4019d2:	bf 01 00 00 00       	mov    $0x1,%edi
  4019d7:	b8 00 00 00 00       	mov    $0x0,%eax
  4019dc:	e8 3f f4 ff ff       	callq  400e20 <__printf_chk@plt>
  4019e1:	bf 03 00 00 00       	mov    $0x3,%edi
  4019e6:	e8 ed 03 00 00       	callq  401dd8 <fail>
  4019eb:	bf 00 00 00 00       	mov    $0x0,%edi
  4019f0:	e8 7b f4 ff ff       	callq  400e70 <exit@plt>

00000000004019f5 <test>:
  4019f5:	48 83 ec 08          	sub    $0x8,%rsp
  4019f9:	b8 00 00 00 00       	mov    $0x0,%eax
  4019fe:	e8 34 fe ff ff       	callq  401837 <getbuf>
  401a03:	89 c2                	mov    %eax,%edx
  401a05:	be 40 32 40 00       	mov    $0x403240,%esi
  401a0a:	bf 01 00 00 00       	mov    $0x1,%edi
  401a0f:	b8 00 00 00 00       	mov    $0x0,%eax
  401a14:	e8 07 f4 ff ff       	callq  400e20 <__printf_chk@plt>
  401a19:	48 83 c4 08          	add    $0x8,%rsp
  401a1d:	c3                   	retq   
  401a1e:	66 90                	xchg   %ax,%ax

0000000000401a20 <save_char>:
  401a20:	8b 05 1e 37 20 00    	mov    0x20371e(%rip),%eax        # 605144 <gets_cnt>
  401a26:	3d ff 03 00 00       	cmp    $0x3ff,%eax
  401a2b:	7f 49                	jg     401a76 <save_char+0x56>
  401a2d:	8d 14 40             	lea    (%rax,%rax,2),%edx
  401a30:	89 f9                	mov    %edi,%ecx
  401a32:	c0 e9 04             	shr    $0x4,%cl
  401a35:	83 e1 0f             	and    $0xf,%ecx
  401a38:	0f b6 b1 60 35 40 00 	movzbl 0x403560(%rcx),%esi
  401a3f:	48 63 ca             	movslq %edx,%rcx
  401a42:	40 88 b1 40 45 60 00 	mov    %sil,0x604540(%rcx)
  401a49:	8d 4a 01             	lea    0x1(%rdx),%ecx
  401a4c:	83 e7 0f             	and    $0xf,%edi
  401a4f:	0f b6 b7 60 35 40 00 	movzbl 0x403560(%rdi),%esi
  401a56:	48 63 c9             	movslq %ecx,%rcx
  401a59:	40 88 b1 40 45 60 00 	mov    %sil,0x604540(%rcx)
  401a60:	83 c2 02             	add    $0x2,%edx
  401a63:	48 63 d2             	movslq %edx,%rdx
  401a66:	c6 82 40 45 60 00 20 	movb   $0x20,0x604540(%rdx)
  401a6d:	83 c0 01             	add    $0x1,%eax
  401a70:	89 05 ce 36 20 00    	mov    %eax,0x2036ce(%rip)        # 605144 <gets_cnt>
  401a76:	f3 c3                	repz retq 

0000000000401a78 <save_term>:
  401a78:	8b 05 c6 36 20 00    	mov    0x2036c6(%rip),%eax        # 605144 <gets_cnt>
  401a7e:	8d 04 40             	lea    (%rax,%rax,2),%eax
  401a81:	48 98                	cltq   
  401a83:	c6 80 40 45 60 00 00 	movb   $0x0,0x604540(%rax)
  401a8a:	c3                   	retq   

0000000000401a8b <check_fail>:
  401a8b:	48 83 ec 08          	sub    $0x8,%rsp
  401a8f:	0f be 15 b2 36 20 00 	movsbl 0x2036b2(%rip),%edx        # 605148 <target_prefix>
  401a96:	41 b8 40 45 60 00    	mov    $0x604540,%r8d
  401a9c:	8b 0d 76 2a 20 00    	mov    0x202a76(%rip),%ecx        # 604518 <check_level>
  401aa2:	be 63 32 40 00       	mov    $0x403263,%esi
  401aa7:	bf 01 00 00 00       	mov    $0x1,%edi
  401aac:	b8 00 00 00 00       	mov    $0x0,%eax
  401ab1:	e8 6a f3 ff ff       	callq  400e20 <__printf_chk@plt>
  401ab6:	bf 01 00 00 00       	mov    $0x1,%edi
  401abb:	e8 b0 f3 ff ff       	callq  400e70 <exit@plt>

0000000000401ac0 <Gets>:
  401ac0:	41 54                	push   %r12
  401ac2:	55                   	push   %rbp
  401ac3:	53                   	push   %rbx
  401ac4:	49 89 fc             	mov    %rdi,%r12
  401ac7:	c7 05 73 36 20 00 00 	movl   $0x0,0x203673(%rip)        # 605144 <gets_cnt>
  401ace:	00 00 00 
  401ad1:	48 89 fb             	mov    %rdi,%rbx
  401ad4:	eb 11                	jmp    401ae7 <Gets+0x27>
  401ad6:	48 8d 6b 01          	lea    0x1(%rbx),%rbp
  401ada:	88 03                	mov    %al,(%rbx)
  401adc:	0f b6 f8             	movzbl %al,%edi
  401adf:	e8 3c ff ff ff       	callq  401a20 <save_char>
  401ae4:	48 89 eb             	mov    %rbp,%rbx
  401ae7:	48 8b 3d 22 2a 20 00 	mov    0x202a22(%rip),%rdi        # 604510 <infile>
  401aee:	e8 fd f2 ff ff       	callq  400df0 <_IO_getc@plt>
  401af3:	83 f8 ff             	cmp    $0xffffffff,%eax
  401af6:	74 05                	je     401afd <Gets+0x3d>
  401af8:	83 f8 0a             	cmp    $0xa,%eax
  401afb:	75 d9                	jne    401ad6 <Gets+0x16>
  401afd:	c6 03 00             	movb   $0x0,(%rbx)
  401b00:	b8 00 00 00 00       	mov    $0x0,%eax
  401b05:	e8 6e ff ff ff       	callq  401a78 <save_term>
  401b0a:	4c 89 e0             	mov    %r12,%rax
  401b0d:	5b                   	pop    %rbx
  401b0e:	5d                   	pop    %rbp
  401b0f:	41 5c                	pop    %r12
  401b11:	c3                   	retq   

0000000000401b12 <notify_server>:
  401b12:	53                   	push   %rbx
  401b13:	48 81 ec 30 40 00 00 	sub    $0x4030,%rsp
  401b1a:	64 48 8b 04 25 28 00 	mov    %fs:0x28,%rax
  401b21:	00 00 
  401b23:	48 89 84 24 28 40 00 	mov    %rax,0x4028(%rsp)
  401b2a:	00 
  401b2b:	31 c0                	xor    %eax,%eax
  401b2d:	83 3d f4 29 20 00 00 	cmpl   $0x0,0x2029f4(%rip)        # 604528 <is_checker>
  401b34:	0f 85 bb 01 00 00    	jne    401cf5 <notify_server+0x1e3>
  401b3a:	89 fb                	mov    %edi,%ebx
  401b3c:	8b 05 02 36 20 00    	mov    0x203602(%rip),%eax        # 605144 <gets_cnt>
  401b42:	83 c0 64             	add    $0x64,%eax
  401b45:	3d 00 20 00 00       	cmp    $0x2000,%eax
  401b4a:	7e 1e                	jle    401b6a <notify_server+0x58>
  401b4c:	be 98 33 40 00       	mov    $0x403398,%esi
  401b51:	bf 01 00 00 00       	mov    $0x1,%edi
  401b56:	b8 00 00 00 00       	mov    $0x0,%eax
  401b5b:	e8 c0 f2 ff ff       	callq  400e20 <__printf_chk@plt>
  401b60:	bf 01 00 00 00       	mov    $0x1,%edi
  401b65:	e8 06 f3 ff ff       	callq  400e70 <exit@plt>
  401b6a:	0f be 05 d7 35 20 00 	movsbl 0x2035d7(%rip),%eax        # 605148 <target_prefix>
  401b71:	83 3d 30 29 20 00 00 	cmpl   $0x0,0x202930(%rip)        # 6044a8 <notify>
  401b78:	74 08                	je     401b82 <notify_server+0x70>
  401b7a:	8b 15 a0 29 20 00    	mov    0x2029a0(%rip),%edx        # 604520 <authkey>
  401b80:	eb 05                	jmp    401b87 <notify_server+0x75>
  401b82:	ba ff ff ff ff       	mov    $0xffffffff,%edx
  401b87:	85 db                	test   %ebx,%ebx
  401b89:	74 08                	je     401b93 <notify_server+0x81>
  401b8b:	41 b9 79 32 40 00    	mov    $0x403279,%r9d
  401b91:	eb 06                	jmp    401b99 <notify_server+0x87>
  401b93:	41 b9 7e 32 40 00    	mov    $0x40327e,%r9d
  401b99:	48 c7 44 24 18 40 45 	movq   $0x604540,0x18(%rsp)
  401ba0:	60 00 
  401ba2:	89 74 24 10          	mov    %esi,0x10(%rsp)
  401ba6:	89 44 24 08          	mov    %eax,0x8(%rsp)
  401baa:	89 14 24             	mov    %edx,(%rsp)
  401bad:	44 8b 05 b4 25 20 00 	mov    0x2025b4(%rip),%r8d        # 604168 <target_id>
  401bb4:	b9 83 32 40 00       	mov    $0x403283,%ecx
  401bb9:	ba 00 20 00 00       	mov    $0x2000,%edx
  401bbe:	be 01 00 00 00       	mov    $0x1,%esi
  401bc3:	48 8d 7c 24 20       	lea    0x20(%rsp),%rdi
  401bc8:	b8 00 00 00 00       	mov    $0x0,%eax
  401bcd:	e8 ce f2 ff ff       	callq  400ea0 <__sprintf_chk@plt>
  401bd2:	83 3d cf 28 20 00 00 	cmpl   $0x0,0x2028cf(%rip)        # 6044a8 <notify>
  401bd9:	0f 84 86 00 00 00    	je     401c65 <notify_server+0x153>
  401bdf:	85 db                	test   %ebx,%ebx
  401be1:	74 70                	je     401c53 <notify_server+0x141>
  401be3:	4c 8d 8c 24 20 20 00 	lea    0x2020(%rsp),%r9
  401bea:	00 
  401beb:	41 b8 00 00 00 00    	mov    $0x0,%r8d
  401bf1:	48 8d 4c 24 20       	lea    0x20(%rsp),%rcx
  401bf6:	48 8b 15 73 25 20 00 	mov    0x202573(%rip),%rdx        # 604170 <lab>
  401bfd:	48 8b 35 74 25 20 00 	mov    0x202574(%rip),%rsi        # 604178 <course>
  401c04:	48 8b 3d 55 25 20 00 	mov    0x202555(%rip),%rdi        # 604160 <user_id>
  401c0b:	e8 be 10 00 00       	callq  402cce <driver_post>
  401c10:	85 c0                	test   %eax,%eax
  401c12:	79 26                	jns    401c3a <notify_server+0x128>
  401c14:	48 8d 94 24 20 20 00 	lea    0x2020(%rsp),%rdx
  401c1b:	00 
  401c1c:	be 9f 32 40 00       	mov    $0x40329f,%esi
  401c21:	bf 01 00 00 00       	mov    $0x1,%edi
  401c26:	b8 00 00 00 00       	mov    $0x0,%eax
  401c2b:	e8 f0 f1 ff ff       	callq  400e20 <__printf_chk@plt>
  401c30:	bf 01 00 00 00       	mov    $0x1,%edi
  401c35:	e8 36 f2 ff ff       	callq  400e70 <exit@plt>
  401c3a:	bf c8 33 40 00       	mov    $0x4033c8,%edi
  401c3f:	e8 9c f0 ff ff       	callq  400ce0 <puts@plt>
  401c44:	bf ab 32 40 00       	mov    $0x4032ab,%edi
  401c49:	e8 92 f0 ff ff       	callq  400ce0 <puts@plt>
  401c4e:	e9 a2 00 00 00       	jmpq   401cf5 <notify_server+0x1e3>
  401c53:	bf b5 32 40 00       	mov    $0x4032b5,%edi
  401c58:	e8 83 f0 ff ff       	callq  400ce0 <puts@plt>
  401c5d:	0f 1f 00             	nopl   (%rax)
  401c60:	e9 90 00 00 00       	jmpq   401cf5 <notify_server+0x1e3>
  401c65:	85 db                	test   %ebx,%ebx
  401c67:	74 09                	je     401c72 <notify_server+0x160>
  401c69:	ba 79 32 40 00       	mov    $0x403279,%edx
  401c6e:	66 90                	xchg   %ax,%ax
  401c70:	eb 05                	jmp    401c77 <notify_server+0x165>
  401c72:	ba 7e 32 40 00       	mov    $0x40327e,%edx
  401c77:	be 00 34 40 00       	mov    $0x403400,%esi
  401c7c:	bf 01 00 00 00       	mov    $0x1,%edi
  401c81:	b8 00 00 00 00       	mov    $0x0,%eax
  401c86:	e8 95 f1 ff ff       	callq  400e20 <__printf_chk@plt>
  401c8b:	48 8b 15 ce 24 20 00 	mov    0x2024ce(%rip),%rdx        # 604160 <user_id>
  401c92:	be bc 32 40 00       	mov    $0x4032bc,%esi
  401c97:	bf 01 00 00 00       	mov    $0x1,%edi
  401c9c:	b8 00 00 00 00       	mov    $0x0,%eax
  401ca1:	e8 7a f1 ff ff       	callq  400e20 <__printf_chk@plt>
  401ca6:	48 8b 15 cb 24 20 00 	mov    0x2024cb(%rip),%rdx        # 604178 <course>
  401cad:	be c9 32 40 00       	mov    $0x4032c9,%esi
  401cb2:	bf 01 00 00 00       	mov    $0x1,%edi
  401cb7:	b8 00 00 00 00       	mov    $0x0,%eax
  401cbc:	e8 5f f1 ff ff       	callq  400e20 <__printf_chk@plt>
  401cc1:	48 8b 15 a8 24 20 00 	mov    0x2024a8(%rip),%rdx        # 604170 <lab>
  401cc8:	be d5 32 40 00       	mov    $0x4032d5,%esi
  401ccd:	bf 01 00 00 00       	mov    $0x1,%edi
  401cd2:	b8 00 00 00 00       	mov    $0x0,%eax
  401cd7:	e8 44 f1 ff ff       	callq  400e20 <__printf_chk@plt>
  401cdc:	48 8d 54 24 20       	lea    0x20(%rsp),%rdx
  401ce1:	be de 32 40 00       	mov    $0x4032de,%esi
  401ce6:	bf 01 00 00 00       	mov    $0x1,%edi
  401ceb:	b8 00 00 00 00       	mov    $0x0,%eax
  401cf0:	e8 2b f1 ff ff       	callq  400e20 <__printf_chk@plt>
  401cf5:	48 8b 84 24 28 40 00 	mov    0x4028(%rsp),%rax
  401cfc:	00 
  401cfd:	64 48 33 04 25 28 00 	xor    %fs:0x28,%rax
  401d04:	00 00 
  401d06:	74 05                	je     401d0d <notify_server+0x1fb>
  401d08:	e8 f3 ef ff ff       	callq  400d00 <__stack_chk_fail@plt>
  401d0d:	48 81 c4 30 40 00 00 	add    $0x4030,%rsp
  401d14:	5b                   	pop    %rbx
  401d15:	c3                   	retq   

0000000000401d16 <validate>:
  401d16:	53                   	push   %rbx
  401d17:	89 fb                	mov    %edi,%ebx
  401d19:	83 3d 08 28 20 00 00 	cmpl   $0x0,0x202808(%rip)        # 604528 <is_checker>
  401d20:	74 6b                	je     401d8d <validate+0x77>
  401d22:	39 3d f4 27 20 00    	cmp    %edi,0x2027f4(%rip)        # 60451c <vlevel>
  401d28:	74 14                	je     401d3e <validate+0x28>
  401d2a:	bf ea 32 40 00       	mov    $0x4032ea,%edi
  401d2f:	e8 ac ef ff ff       	callq  400ce0 <puts@plt>
  401d34:	b8 00 00 00 00       	mov    $0x0,%eax
  401d39:	e8 4d fd ff ff       	callq  401a8b <check_fail>
  401d3e:	8b 15 d4 27 20 00    	mov    0x2027d4(%rip),%edx        # 604518 <check_level>
  401d44:	39 fa                	cmp    %edi,%edx
  401d46:	74 20                	je     401d68 <validate+0x52>
  401d48:	89 f9                	mov    %edi,%ecx
  401d4a:	be 28 34 40 00       	mov    $0x403428,%esi
  401d4f:	bf 01 00 00 00       	mov    $0x1,%edi
  401d54:	b8 00 00 00 00       	mov    $0x0,%eax
  401d59:	e8 c2 f0 ff ff       	callq  400e20 <__printf_chk@plt>
  401d5e:	b8 00 00 00 00       	mov    $0x0,%eax
  401d63:	e8 23 fd ff ff       	callq  401a8b <check_fail>
  401d68:	0f be 15 d9 33 20 00 	movsbl 0x2033d9(%rip),%edx        # 605148 <target_prefix>
  401d6f:	41 b8 40 45 60 00    	mov    $0x604540,%r8d
  401d75:	89 f9                	mov    %edi,%ecx
  401d77:	be 08 33 40 00       	mov    $0x403308,%esi
  401d7c:	bf 01 00 00 00       	mov    $0x1,%edi
  401d81:	b8 00 00 00 00       	mov    $0x0,%eax
  401d86:	e8 95 f0 ff ff       	callq  400e20 <__printf_chk@plt>
  401d8b:	eb 49                	jmp    401dd6 <validate+0xc0>
  401d8d:	39 3d 89 27 20 00    	cmp    %edi,0x202789(%rip)        # 60451c <vlevel>
  401d93:	74 18                	je     401dad <validate+0x97>
  401d95:	bf ea 32 40 00       	mov    $0x4032ea,%edi
  401d9a:	e8 41 ef ff ff       	callq  400ce0 <puts@plt>
  401d9f:	89 de                	mov    %ebx,%esi
  401da1:	bf 00 00 00 00       	mov    $0x0,%edi
  401da6:	e8 67 fd ff ff       	callq  401b12 <notify_server>
  401dab:	eb 29                	jmp    401dd6 <validate+0xc0>
  401dad:	0f be 0d 94 33 20 00 	movsbl 0x203394(%rip),%ecx        # 605148 <target_prefix>
  401db4:	89 fa                	mov    %edi,%edx
  401db6:	be 50 34 40 00       	mov    $0x403450,%esi
  401dbb:	bf 01 00 00 00       	mov    $0x1,%edi
  401dc0:	b8 00 00 00 00       	mov    $0x0,%eax
  401dc5:	e8 56 f0 ff ff       	callq  400e20 <__printf_chk@plt>
  401dca:	89 de                	mov    %ebx,%esi
  401dcc:	bf 01 00 00 00       	mov    $0x1,%edi
  401dd1:	e8 3c fd ff ff       	callq  401b12 <notify_server>
  401dd6:	5b                   	pop    %rbx
  401dd7:	c3                   	retq   

0000000000401dd8 <fail>:
  401dd8:	48 83 ec 08          	sub    $0x8,%rsp
  401ddc:	83 3d 45 27 20 00 00 	cmpl   $0x0,0x202745(%rip)        # 604528 <is_checker>
  401de3:	74 0a                	je     401def <fail+0x17>
  401de5:	b8 00 00 00 00       	mov    $0x0,%eax
  401dea:	e8 9c fc ff ff       	callq  401a8b <check_fail>
  401def:	89 fe                	mov    %edi,%esi
  401df1:	bf 00 00 00 00       	mov    $0x0,%edi
  401df6:	e8 17 fd ff ff       	callq  401b12 <notify_server>
  401dfb:	48 83 c4 08          	add    $0x8,%rsp
  401dff:	c3                   	retq   

0000000000401e00 <bushandler>:
  401e00:	48 83 ec 08          	sub    $0x8,%rsp
  401e04:	83 3d 1d 27 20 00 00 	cmpl   $0x0,0x20271d(%rip)        # 604528 <is_checker>
  401e0b:	74 14                	je     401e21 <bushandler+0x21>
  401e0d:	bf 1d 33 40 00       	mov    $0x40331d,%edi
  401e12:	e8 c9 ee ff ff       	callq  400ce0 <puts@plt>
  401e17:	b8 00 00 00 00       	mov    $0x0,%eax
  401e1c:	e8 6a fc ff ff       	callq  401a8b <check_fail>
  401e21:	bf 88 34 40 00       	mov    $0x403488,%edi
  401e26:	e8 b5 ee ff ff       	callq  400ce0 <puts@plt>
  401e2b:	bf 27 33 40 00       	mov    $0x403327,%edi
  401e30:	e8 ab ee ff ff       	callq  400ce0 <puts@plt>
  401e35:	be 00 00 00 00       	mov    $0x0,%esi
  401e3a:	bf 00 00 00 00       	mov    $0x0,%edi
  401e3f:	e8 ce fc ff ff       	callq  401b12 <notify_server>
  401e44:	bf 01 00 00 00       	mov    $0x1,%edi
  401e49:	e8 22 f0 ff ff       	callq  400e70 <exit@plt>

0000000000401e4e <seghandler>:
  401e4e:	48 83 ec 08          	sub    $0x8,%rsp
  401e52:	83 3d cf 26 20 00 00 	cmpl   $0x0,0x2026cf(%rip)        # 604528 <is_checker>
  401e59:	74 14                	je     401e6f <seghandler+0x21>
  401e5b:	bf 3d 33 40 00       	mov    $0x40333d,%edi
  401e60:	e8 7b ee ff ff       	callq  400ce0 <puts@plt>
  401e65:	b8 00 00 00 00       	mov    $0x0,%eax
  401e6a:	e8 1c fc ff ff       	callq  401a8b <check_fail>
  401e6f:	bf a8 34 40 00       	mov    $0x4034a8,%edi
  401e74:	e8 67 ee ff ff       	callq  400ce0 <puts@plt>
  401e79:	bf 27 33 40 00       	mov    $0x403327,%edi
  401e7e:	e8 5d ee ff ff       	callq  400ce0 <puts@plt>
  401e83:	be 00 00 00 00       	mov    $0x0,%esi
  401e88:	bf 00 00 00 00       	mov    $0x0,%edi
  401e8d:	e8 80 fc ff ff       	callq  401b12 <notify_server>
  401e92:	bf 01 00 00 00       	mov    $0x1,%edi
  401e97:	e8 d4 ef ff ff       	callq  400e70 <exit@plt>

0000000000401e9c <illegalhandler>:
  401e9c:	48 83 ec 08          	sub    $0x8,%rsp
  401ea0:	83 3d 81 26 20 00 00 	cmpl   $0x0,0x202681(%rip)        # 604528 <is_checker>
  401ea7:	74 14                	je     401ebd <illegalhandler+0x21>
  401ea9:	bf 50 33 40 00       	mov    $0x403350,%edi
  401eae:	e8 2d ee ff ff       	callq  400ce0 <puts@plt>
  401eb3:	b8 00 00 00 00       	mov    $0x0,%eax
  401eb8:	e8 ce fb ff ff       	callq  401a8b <check_fail>
  401ebd:	bf d0 34 40 00       	mov    $0x4034d0,%edi
  401ec2:	e8 19 ee ff ff       	callq  400ce0 <puts@plt>
  401ec7:	bf 27 33 40 00       	mov    $0x403327,%edi
  401ecc:	e8 0f ee ff ff       	callq  400ce0 <puts@plt>
  401ed1:	be 00 00 00 00       	mov    $0x0,%esi
  401ed6:	bf 00 00 00 00       	mov    $0x0,%edi
  401edb:	e8 32 fc ff ff       	callq  401b12 <notify_server>
  401ee0:	bf 01 00 00 00       	mov    $0x1,%edi
  401ee5:	e8 86 ef ff ff       	callq  400e70 <exit@plt>

0000000000401eea <sigalrmhandler>:
  401eea:	48 83 ec 08          	sub    $0x8,%rsp
  401eee:	83 3d 33 26 20 00 00 	cmpl   $0x0,0x202633(%rip)        # 604528 <is_checker>
  401ef5:	74 14                	je     401f0b <sigalrmhandler+0x21>
  401ef7:	bf 64 33 40 00       	mov    $0x403364,%edi
  401efc:	e8 df ed ff ff       	callq  400ce0 <puts@plt>
  401f01:	b8 00 00 00 00       	mov    $0x0,%eax
  401f06:	e8 80 fb ff ff       	callq  401a8b <check_fail>
  401f0b:	ba 05 00 00 00       	mov    $0x5,%edx
  401f10:	be 00 35 40 00       	mov    $0x403500,%esi
  401f15:	bf 01 00 00 00       	mov    $0x1,%edi
  401f1a:	b8 00 00 00 00       	mov    $0x0,%eax
  401f1f:	e8 fc ee ff ff       	callq  400e20 <__printf_chk@plt>
  401f24:	be 00 00 00 00       	mov    $0x0,%esi
  401f29:	bf 00 00 00 00       	mov    $0x0,%edi
  401f2e:	e8 df fb ff ff       	callq  401b12 <notify_server>
  401f33:	bf 01 00 00 00       	mov    $0x1,%edi
  401f38:	e8 33 ef ff ff       	callq  400e70 <exit@plt>

0000000000401f3d <launch>:
  401f3d:	55                   	push   %rbp
  401f3e:	48 89 e5             	mov    %rsp,%rbp
  401f41:	48 83 ec 10          	sub    $0x10,%rsp
  401f45:	48 89 fa             	mov    %rdi,%rdx
  401f48:	64 48 8b 04 25 28 00 	mov    %fs:0x28,%rax
  401f4f:	00 00 
  401f51:	48 89 45 f8          	mov    %rax,-0x8(%rbp)
  401f55:	31 c0                	xor    %eax,%eax
  401f57:	48 8d 47 1e          	lea    0x1e(%rdi),%rax
  401f5b:	48 83 e0 f0          	and    $0xfffffffffffffff0,%rax
  401f5f:	48 29 c4             	sub    %rax,%rsp
  401f62:	48 8d 7c 24 0f       	lea    0xf(%rsp),%rdi
  401f67:	48 83 e7 f0          	and    $0xfffffffffffffff0,%rdi
  401f6b:	be f4 00 00 00       	mov    $0xf4,%esi
  401f70:	e8 ab ed ff ff       	callq  400d20 <memset@plt>
  401f75:	48 8b 05 44 25 20 00 	mov    0x202544(%rip),%rax        # 6044c0 <stdin@@GLIBC_2.2.5>
  401f7c:	48 39 05 8d 25 20 00 	cmp    %rax,0x20258d(%rip)        # 604510 <infile>
  401f83:	75 14                	jne    401f99 <launch+0x5c>
  401f85:	be 6c 33 40 00       	mov    $0x40336c,%esi
  401f8a:	bf 01 00 00 00       	mov    $0x1,%edi
  401f8f:	b8 00 00 00 00       	mov    $0x0,%eax
  401f94:	e8 87 ee ff ff       	callq  400e20 <__printf_chk@plt>
  401f99:	c7 05 79 25 20 00 00 	movl   $0x0,0x202579(%rip)        # 60451c <vlevel>
  401fa0:	00 00 00 
  401fa3:	b8 00 00 00 00       	mov    $0x0,%eax
  401fa8:	e8 48 fa ff ff       	callq  4019f5 <test>
  401fad:	83 3d 74 25 20 00 00 	cmpl   $0x0,0x202574(%rip)        # 604528 <is_checker>
  401fb4:	74 14                	je     401fca <launch+0x8d>
  401fb6:	bf 79 33 40 00       	mov    $0x403379,%edi
  401fbb:	e8 20 ed ff ff       	callq  400ce0 <puts@plt>
  401fc0:	b8 00 00 00 00       	mov    $0x0,%eax
  401fc5:	e8 c1 fa ff ff       	callq  401a8b <check_fail>
  401fca:	bf 84 33 40 00       	mov    $0x403384,%edi
  401fcf:	e8 0c ed ff ff       	callq  400ce0 <puts@plt>
  401fd4:	48 8b 45 f8          	mov    -0x8(%rbp),%rax
  401fd8:	64 48 33 04 25 28 00 	xor    %fs:0x28,%rax
  401fdf:	00 00 
  401fe1:	74 05                	je     401fe8 <launch+0xab>
  401fe3:	e8 18 ed ff ff       	callq  400d00 <__stack_chk_fail@plt>
  401fe8:	c9                   	leaveq 
  401fe9:	c3                   	retq   

0000000000401fea <stable_launch>:
  401fea:	53                   	push   %rbx
  401feb:	48 89 3d 16 25 20 00 	mov    %rdi,0x202516(%rip)        # 604508 <global_offset>
  401ff2:	41 b9 00 00 00 00    	mov    $0x0,%r9d
  401ff8:	41 b8 00 00 00 00    	mov    $0x0,%r8d
  401ffe:	b9 32 01 00 00       	mov    $0x132,%ecx
  402003:	ba 07 00 00 00       	mov    $0x7,%edx
  402008:	be 00 00 10 00       	mov    $0x100000,%esi
  40200d:	bf 00 60 58 55       	mov    $0x55586000,%edi
  402012:	e8 f9 ec ff ff       	callq  400d10 <mmap@plt>
  402017:	48 89 c3             	mov    %rax,%rbx
  40201a:	48 3d 00 60 58 55    	cmp    $0x55586000,%rax
  402020:	74 37                	je     402059 <stable_launch+0x6f>
  402022:	be 00 00 10 00       	mov    $0x100000,%esi
  402027:	48 89 c7             	mov    %rax,%rdi
  40202a:	e8 e1 ed ff ff       	callq  400e10 <munmap@plt>
  40202f:	b9 00 60 58 55       	mov    $0x55586000,%ecx
  402034:	ba 38 35 40 00       	mov    $0x403538,%edx
  402039:	be 01 00 00 00       	mov    $0x1,%esi
  40203e:	48 8b 3d a3 24 20 00 	mov    0x2024a3(%rip),%rdi        # 6044e8 <stderr@@GLIBC_2.2.5>
  402045:	b8 00 00 00 00       	mov    $0x0,%eax
  40204a:	e8 41 ee ff ff       	callq  400e90 <__fprintf_chk@plt>
  40204f:	bf 01 00 00 00       	mov    $0x1,%edi
  402054:	e8 17 ee ff ff       	callq  400e70 <exit@plt>
  402059:	48 8d 90 f8 ff 0f 00 	lea    0xffff8(%rax),%rdx
  402060:	48 89 15 e9 30 20 00 	mov    %rdx,0x2030e9(%rip)        # 605150 <stack_top>
  402067:	48 89 e0             	mov    %rsp,%rax
  40206a:	48 89 d4             	mov    %rdx,%rsp
  40206d:	48 89 c2             	mov    %rax,%rdx
  402070:	48 89 15 89 24 20 00 	mov    %rdx,0x202489(%rip)        # 604500 <global_save_stack>
  402077:	48 8b 3d 8a 24 20 00 	mov    0x20248a(%rip),%rdi        # 604508 <global_offset>
  40207e:	e8 ba fe ff ff       	callq  401f3d <launch>
  402083:	48 8b 05 76 24 20 00 	mov    0x202476(%rip),%rax        # 604500 <global_save_stack>
  40208a:	48 89 c4             	mov    %rax,%rsp
  40208d:	be 00 00 10 00       	mov    $0x100000,%esi
  402092:	48 89 df             	mov    %rbx,%rdi
  402095:	e8 76 ed ff ff       	callq  400e10 <munmap@plt>
  40209a:	5b                   	pop    %rbx
  40209b:	c3                   	retq   
  40209c:	0f 1f 40 00          	nopl   0x0(%rax)

00000000004020a0 <rio_readinitb>:
  4020a0:	89 37                	mov    %esi,(%rdi)
  4020a2:	c7 47 04 00 00 00 00 	movl   $0x0,0x4(%rdi)
  4020a9:	48 8d 47 10          	lea    0x10(%rdi),%rax
  4020ad:	48 89 47 08          	mov    %rax,0x8(%rdi)
  4020b1:	c3                   	retq   

00000000004020b2 <sigalrm_handler>:
  4020b2:	48 83 ec 08          	sub    $0x8,%rsp
  4020b6:	b9 00 00 00 00       	mov    $0x0,%ecx
  4020bb:	ba 70 35 40 00       	mov    $0x403570,%edx
  4020c0:	be 01 00 00 00       	mov    $0x1,%esi
  4020c5:	48 8b 3d 1c 24 20 00 	mov    0x20241c(%rip),%rdi        # 6044e8 <stderr@@GLIBC_2.2.5>
  4020cc:	b8 00 00 00 00       	mov    $0x0,%eax
  4020d1:	e8 ba ed ff ff       	callq  400e90 <__fprintf_chk@plt>
  4020d6:	bf 01 00 00 00       	mov    $0x1,%edi
  4020db:	e8 90 ed ff ff       	callq  400e70 <exit@plt>

00000000004020e0 <rio_writen>:
  4020e0:	41 55                	push   %r13
  4020e2:	41 54                	push   %r12
  4020e4:	55                   	push   %rbp
  4020e5:	53                   	push   %rbx
  4020e6:	48 83 ec 08          	sub    $0x8,%rsp
  4020ea:	41 89 fc             	mov    %edi,%r12d
  4020ed:	48 89 f5             	mov    %rsi,%rbp
  4020f0:	49 89 d5             	mov    %rdx,%r13
  4020f3:	48 89 d3             	mov    %rdx,%rbx
  4020f6:	eb 28                	jmp    402120 <rio_writen+0x40>
  4020f8:	48 89 da             	mov    %rbx,%rdx
  4020fb:	48 89 ee             	mov    %rbp,%rsi
  4020fe:	44 89 e7             	mov    %r12d,%edi
  402101:	e8 ea eb ff ff       	callq  400cf0 <write@plt>
  402106:	48 85 c0             	test   %rax,%rax
  402109:	7f 0f                	jg     40211a <rio_writen+0x3a>
  40210b:	e8 90 eb ff ff       	callq  400ca0 <__errno_location@plt>
  402110:	83 38 04             	cmpl   $0x4,(%rax)
  402113:	75 15                	jne    40212a <rio_writen+0x4a>
  402115:	b8 00 00 00 00       	mov    $0x0,%eax
  40211a:	48 29 c3             	sub    %rax,%rbx
  40211d:	48 01 c5             	add    %rax,%rbp
  402120:	48 85 db             	test   %rbx,%rbx
  402123:	75 d3                	jne    4020f8 <rio_writen+0x18>
  402125:	4c 89 e8             	mov    %r13,%rax
  402128:	eb 07                	jmp    402131 <rio_writen+0x51>
  40212a:	48 c7 c0 ff ff ff ff 	mov    $0xffffffffffffffff,%rax
  402131:	48 83 c4 08          	add    $0x8,%rsp
  402135:	5b                   	pop    %rbx
  402136:	5d                   	pop    %rbp
  402137:	41 5c                	pop    %r12
  402139:	41 5d                	pop    %r13
  40213b:	c3                   	retq   

000000000040213c <rio_read>:
  40213c:	41 56                	push   %r14
  40213e:	41 55                	push   %r13
  402140:	41 54                	push   %r12
  402142:	55                   	push   %rbp
  402143:	53                   	push   %rbx
  402144:	48 89 fb             	mov    %rdi,%rbx
  402147:	49 89 f6             	mov    %rsi,%r14
  40214a:	49 89 d5             	mov    %rdx,%r13
  40214d:	4c 8d 67 10          	lea    0x10(%rdi),%r12
  402151:	eb 2a                	jmp    40217d <rio_read+0x41>
  402153:	8b 3b                	mov    (%rbx),%edi
  402155:	ba 00 20 00 00       	mov    $0x2000,%edx
  40215a:	4c 89 e6             	mov    %r12,%rsi
  40215d:	e8 ee eb ff ff       	callq  400d50 <read@plt>
  402162:	89 43 04             	mov    %eax,0x4(%rbx)
  402165:	85 c0                	test   %eax,%eax
  402167:	79 0c                	jns    402175 <rio_read+0x39>
  402169:	e8 32 eb ff ff       	callq  400ca0 <__errno_location@plt>
  40216e:	83 38 04             	cmpl   $0x4,(%rax)
  402171:	74 0a                	je     40217d <rio_read+0x41>
  402173:	eb 37                	jmp    4021ac <rio_read+0x70>
  402175:	85 c0                	test   %eax,%eax
  402177:	74 3c                	je     4021b5 <rio_read+0x79>
  402179:	4c 89 63 08          	mov    %r12,0x8(%rbx)
  40217d:	8b 6b 04             	mov    0x4(%rbx),%ebp
  402180:	85 ed                	test   %ebp,%ebp
  402182:	7e cf                	jle    402153 <rio_read+0x17>
  402184:	89 e8                	mov    %ebp,%eax
  402186:	4c 39 e8             	cmp    %r13,%rax
  402189:	72 03                	jb     40218e <rio_read+0x52>
  40218b:	44 89 ed             	mov    %r13d,%ebp
  40218e:	4c 63 e5             	movslq %ebp,%r12
  402191:	48 8b 73 08          	mov    0x8(%rbx),%rsi
  402195:	4c 89 e2             	mov    %r12,%rdx
  402198:	4c 89 f7             	mov    %r14,%rdi
  40219b:	e8 20 ec ff ff       	callq  400dc0 <memcpy@plt>
  4021a0:	4c 01 63 08          	add    %r12,0x8(%rbx)
  4021a4:	29 6b 04             	sub    %ebp,0x4(%rbx)
  4021a7:	4c 89 e0             	mov    %r12,%rax
  4021aa:	eb 0e                	jmp    4021ba <rio_read+0x7e>
  4021ac:	48 c7 c0 ff ff ff ff 	mov    $0xffffffffffffffff,%rax
  4021b3:	eb 05                	jmp    4021ba <rio_read+0x7e>
  4021b5:	b8 00 00 00 00       	mov    $0x0,%eax
  4021ba:	5b                   	pop    %rbx
  4021bb:	5d                   	pop    %rbp
  4021bc:	41 5c                	pop    %r12
  4021be:	41 5d                	pop    %r13
  4021c0:	41 5e                	pop    %r14
  4021c2:	c3                   	retq   

00000000004021c3 <rio_readlineb>:
  4021c3:	41 55                	push   %r13
  4021c5:	41 54                	push   %r12
  4021c7:	55                   	push   %rbp
  4021c8:	53                   	push   %rbx
  4021c9:	48 83 ec 18          	sub    $0x18,%rsp
  4021cd:	49 89 fd             	mov    %rdi,%r13
  4021d0:	48 89 f5             	mov    %rsi,%rbp
  4021d3:	49 89 d4             	mov    %rdx,%r12
  4021d6:	bb 01 00 00 00       	mov    $0x1,%ebx
  4021db:	eb 3e                	jmp    40221b <rio_readlineb+0x58>
  4021dd:	ba 01 00 00 00       	mov    $0x1,%edx
  4021e2:	48 8d 74 24 0f       	lea    0xf(%rsp),%rsi
  4021e7:	4c 89 ef             	mov    %r13,%rdi
  4021ea:	e8 4d ff ff ff       	callq  40213c <rio_read>
  4021ef:	83 f8 01             	cmp    $0x1,%eax
  4021f2:	75 12                	jne    402206 <rio_readlineb+0x43>
  4021f4:	48 8d 55 01          	lea    0x1(%rbp),%rdx
  4021f8:	0f b6 44 24 0f       	movzbl 0xf(%rsp),%eax
  4021fd:	88 45 00             	mov    %al,0x0(%rbp)
  402200:	3c 0a                	cmp    $0xa,%al
  402202:	75 10                	jne    402214 <rio_readlineb+0x51>
  402204:	eb 1c                	jmp    402222 <rio_readlineb+0x5f>
  402206:	85 c0                	test   %eax,%eax
  402208:	75 24                	jne    40222e <rio_readlineb+0x6b>
  40220a:	48 83 fb 01          	cmp    $0x1,%rbx
  40220e:	66 90                	xchg   %ax,%ax
  402210:	75 13                	jne    402225 <rio_readlineb+0x62>
  402212:	eb 23                	jmp    402237 <rio_readlineb+0x74>
  402214:	48 83 c3 01          	add    $0x1,%rbx
  402218:	48 89 d5             	mov    %rdx,%rbp
  40221b:	4c 39 e3             	cmp    %r12,%rbx
  40221e:	72 bd                	jb     4021dd <rio_readlineb+0x1a>
  402220:	eb 03                	jmp    402225 <rio_readlineb+0x62>
  402222:	48 89 d5             	mov    %rdx,%rbp
  402225:	c6 45 00 00          	movb   $0x0,0x0(%rbp)
  402229:	48 89 d8             	mov    %rbx,%rax
  40222c:	eb 0e                	jmp    40223c <rio_readlineb+0x79>
  40222e:	48 c7 c0 ff ff ff ff 	mov    $0xffffffffffffffff,%rax
  402235:	eb 05                	jmp    40223c <rio_readlineb+0x79>
  402237:	b8 00 00 00 00       	mov    $0x0,%eax
  40223c:	48 83 c4 18          	add    $0x18,%rsp
  402240:	5b                   	pop    %rbx
  402241:	5d                   	pop    %rbp
  402242:	41 5c                	pop    %r12
  402244:	41 5d                	pop    %r13
  402246:	c3                   	retq   

0000000000402247 <urlencode>:
  402247:	41 54                	push   %r12
  402249:	55                   	push   %rbp
  40224a:	53                   	push   %rbx
  40224b:	48 83 ec 10          	sub    $0x10,%rsp
  40224f:	48 89 fb             	mov    %rdi,%rbx
  402252:	48 89 f5             	mov    %rsi,%rbp
  402255:	64 48 8b 04 25 28 00 	mov    %fs:0x28,%rax
  40225c:	00 00 
  40225e:	48 89 44 24 08       	mov    %rax,0x8(%rsp)
  402263:	31 c0                	xor    %eax,%eax
  402265:	48 c7 c1 ff ff ff ff 	mov    $0xffffffffffffffff,%rcx
  40226c:	f2 ae                	repnz scas %es:(%rdi),%al
  40226e:	48 f7 d1             	not    %rcx
  402271:	8d 41 ff             	lea    -0x1(%rcx),%eax
  402274:	e9 aa 00 00 00       	jmpq   402323 <urlencode+0xdc>
  402279:	44 0f b6 03          	movzbl (%rbx),%r8d
  40227d:	41 80 f8 2a          	cmp    $0x2a,%r8b
  402281:	0f 94 c2             	sete   %dl
  402284:	41 80 f8 2d          	cmp    $0x2d,%r8b
  402288:	0f 94 c0             	sete   %al
  40228b:	08 c2                	or     %al,%dl
  40228d:	75 24                	jne    4022b3 <urlencode+0x6c>
  40228f:	41 80 f8 2e          	cmp    $0x2e,%r8b
  402293:	74 1e                	je     4022b3 <urlencode+0x6c>
  402295:	41 80 f8 5f          	cmp    $0x5f,%r8b
  402299:	74 18                	je     4022b3 <urlencode+0x6c>
  40229b:	41 8d 40 d0          	lea    -0x30(%r8),%eax
  40229f:	3c 09                	cmp    $0x9,%al
  4022a1:	76 10                	jbe    4022b3 <urlencode+0x6c>
  4022a3:	41 8d 40 bf          	lea    -0x41(%r8),%eax
  4022a7:	3c 19                	cmp    $0x19,%al
  4022a9:	76 08                	jbe    4022b3 <urlencode+0x6c>
  4022ab:	41 8d 40 9f          	lea    -0x61(%r8),%eax
  4022af:	3c 19                	cmp    $0x19,%al
  4022b1:	77 0a                	ja     4022bd <urlencode+0x76>
  4022b3:	44 88 45 00          	mov    %r8b,0x0(%rbp)
  4022b7:	48 8d 6d 01          	lea    0x1(%rbp),%rbp
  4022bb:	eb 5f                	jmp    40231c <urlencode+0xd5>
  4022bd:	41 80 f8 20          	cmp    $0x20,%r8b
  4022c1:	75 0a                	jne    4022cd <urlencode+0x86>
  4022c3:	c6 45 00 2b          	movb   $0x2b,0x0(%rbp)
  4022c7:	48 8d 6d 01          	lea    0x1(%rbp),%rbp
  4022cb:	eb 4f                	jmp    40231c <urlencode+0xd5>
  4022cd:	41 8d 40 e0          	lea    -0x20(%r8),%eax
  4022d1:	3c 5f                	cmp    $0x5f,%al
  4022d3:	0f 96 c2             	setbe  %dl
  4022d6:	41 80 f8 09          	cmp    $0x9,%r8b
  4022da:	0f 94 c0             	sete   %al
  4022dd:	08 c2                	or     %al,%dl
  4022df:	74 50                	je     402331 <urlencode+0xea>
  4022e1:	45 0f b6 c0          	movzbl %r8b,%r8d
  4022e5:	b9 08 36 40 00       	mov    $0x403608,%ecx
  4022ea:	ba 08 00 00 00       	mov    $0x8,%edx
  4022ef:	be 01 00 00 00       	mov    $0x1,%esi
  4022f4:	48 89 e7             	mov    %rsp,%rdi
  4022f7:	b8 00 00 00 00       	mov    $0x0,%eax
  4022fc:	e8 9f eb ff ff       	callq  400ea0 <__sprintf_chk@plt>
  402301:	0f b6 04 24          	movzbl (%rsp),%eax
  402305:	88 45 00             	mov    %al,0x0(%rbp)
  402308:	0f b6 44 24 01       	movzbl 0x1(%rsp),%eax
  40230d:	88 45 01             	mov    %al,0x1(%rbp)
  402310:	0f b6 44 24 02       	movzbl 0x2(%rsp),%eax
  402315:	88 45 02             	mov    %al,0x2(%rbp)
  402318:	48 8d 6d 03          	lea    0x3(%rbp),%rbp
  40231c:	48 83 c3 01          	add    $0x1,%rbx
  402320:	44 89 e0             	mov    %r12d,%eax
  402323:	44 8d 60 ff          	lea    -0x1(%rax),%r12d
  402327:	85 c0                	test   %eax,%eax
  402329:	0f 85 4a ff ff ff    	jne    402279 <urlencode+0x32>
  40232f:	eb 05                	jmp    402336 <urlencode+0xef>
  402331:	b8 ff ff ff ff       	mov    $0xffffffff,%eax
  402336:	48 8b 74 24 08       	mov    0x8(%rsp),%rsi
  40233b:	64 48 33 34 25 28 00 	xor    %fs:0x28,%rsi
  402342:	00 00 
  402344:	74 05                	je     40234b <urlencode+0x104>
  402346:	e8 b5 e9 ff ff       	callq  400d00 <__stack_chk_fail@plt>
  40234b:	48 83 c4 10          	add    $0x10,%rsp
  40234f:	5b                   	pop    %rbx
  402350:	5d                   	pop    %rbp
  402351:	41 5c                	pop    %r12
  402353:	c3                   	retq   

0000000000402354 <submitr>:
  402354:	41 57                	push   %r15
  402356:	41 56                	push   %r14
  402358:	41 55                	push   %r13
  40235a:	41 54                	push   %r12
  40235c:	55                   	push   %rbp
  40235d:	53                   	push   %rbx
  40235e:	48 81 ec 68 a0 00 00 	sub    $0xa068,%rsp
  402365:	49 89 fc             	mov    %rdi,%r12
  402368:	89 74 24 14          	mov    %esi,0x14(%rsp)
  40236c:	49 89 d7             	mov    %rdx,%r15
  40236f:	49 89 ce             	mov    %rcx,%r14
  402372:	4c 89 44 24 18       	mov    %r8,0x18(%rsp)
  402377:	4d 89 cd             	mov    %r9,%r13
  40237a:	48 8b 9c 24 a0 a0 00 	mov    0xa0a0(%rsp),%rbx
  402381:	00 
  402382:	64 48 8b 04 25 28 00 	mov    %fs:0x28,%rax
  402389:	00 00 
  40238b:	48 89 84 24 58 a0 00 	mov    %rax,0xa058(%rsp)
  402392:	00 
  402393:	31 c0                	xor    %eax,%eax
  402395:	c7 44 24 2c 00 00 00 	movl   $0x0,0x2c(%rsp)
  40239c:	00 
  40239d:	ba 00 00 00 00       	mov    $0x0,%edx
  4023a2:	be 01 00 00 00       	mov    $0x1,%esi
  4023a7:	bf 02 00 00 00       	mov    $0x2,%edi
  4023ac:	e8 ff ea ff ff       	callq  400eb0 <socket@plt>
  4023b1:	89 c5                	mov    %eax,%ebp
  4023b3:	85 c0                	test   %eax,%eax
  4023b5:	79 4e                	jns    402405 <submitr+0xb1>
  4023b7:	48 b8 45 72 72 6f 72 	movabs $0x43203a726f727245,%rax
  4023be:	3a 20 43 
  4023c1:	48 89 03             	mov    %rax,(%rbx)
  4023c4:	48 b8 6c 69 65 6e 74 	movabs $0x6e7520746e65696c,%rax
  4023cb:	20 75 6e 
  4023ce:	48 89 43 08          	mov    %rax,0x8(%rbx)
  4023d2:	48 b8 61 62 6c 65 20 	movabs $0x206f7420656c6261,%rax
  4023d9:	74 6f 20 
  4023dc:	48 89 43 10          	mov    %rax,0x10(%rbx)
  4023e0:	48 b8 63 72 65 61 74 	movabs $0x7320657461657263,%rax
  4023e7:	65 20 73 
  4023ea:	48 89 43 18          	mov    %rax,0x18(%rbx)
  4023ee:	c7 43 20 6f 63 6b 65 	movl   $0x656b636f,0x20(%rbx)
  4023f5:	66 c7 43 24 74 00    	movw   $0x74,0x24(%rbx)
  4023fb:	b8 ff ff ff ff       	mov    $0xffffffff,%eax
  402400:	e9 84 06 00 00       	jmpq   402a89 <submitr+0x735>
  402405:	4c 89 e7             	mov    %r12,%rdi
  402408:	e8 73 e9 ff ff       	callq  400d80 <gethostbyname@plt>
  40240d:	48 85 c0             	test   %rax,%rax
  402410:	75 67                	jne    402479 <submitr+0x125>
  402412:	48 b8 45 72 72 6f 72 	movabs $0x44203a726f727245,%rax
  402419:	3a 20 44 
  40241c:	48 89 03             	mov    %rax,(%rbx)
  40241f:	48 b8 4e 53 20 69 73 	movabs $0x6e7520736920534e,%rax
  402426:	20 75 6e 
  402429:	48 89 43 08          	mov    %rax,0x8(%rbx)
  40242d:	48 b8 61 62 6c 65 20 	movabs $0x206f7420656c6261,%rax
  402434:	74 6f 20 
  402437:	48 89 43 10          	mov    %rax,0x10(%rbx)
  40243b:	48 b8 72 65 73 6f 6c 	movabs $0x2065766c6f736572,%rax
  402442:	76 65 20 
  402445:	48 89 43 18          	mov    %rax,0x18(%rbx)
  402449:	48 b8 73 65 72 76 65 	movabs $0x6120726576726573,%rax
  402450:	72 20 61 
  402453:	48 89 43 20          	mov    %rax,0x20(%rbx)
  402457:	c7 43 28 64 64 72 65 	movl   $0x65726464,0x28(%rbx)
  40245e:	66 c7 43 2c 73 73    	movw   $0x7373,0x2c(%rbx)
  402464:	c6 43 2e 00          	movb   $0x0,0x2e(%rbx)
  402468:	89 ef                	mov    %ebp,%edi
  40246a:	e8 d1 e8 ff ff       	callq  400d40 <close@plt>
  40246f:	b8 ff ff ff ff       	mov    $0xffffffff,%eax
  402474:	e9 10 06 00 00       	jmpq   402a89 <submitr+0x735>
  402479:	48 c7 44 24 30 00 00 	movq   $0x0,0x30(%rsp)
  402480:	00 00 
  402482:	48 c7 44 24 38 00 00 	movq   $0x0,0x38(%rsp)
  402489:	00 00 
  40248b:	66 c7 44 24 30 02 00 	movw   $0x2,0x30(%rsp)
  402492:	48 63 50 14          	movslq 0x14(%rax),%rdx
  402496:	48 8b 40 18          	mov    0x18(%rax),%rax
  40249a:	48 8b 30             	mov    (%rax),%rsi
  40249d:	48 8d 7c 24 34       	lea    0x34(%rsp),%rdi
  4024a2:	b9 0c 00 00 00       	mov    $0xc,%ecx
  4024a7:	e8 e4 e8 ff ff       	callq  400d90 <__memmove_chk@plt>
  4024ac:	0f b7 44 24 14       	movzwl 0x14(%rsp),%eax
  4024b1:	66 c1 c8 08          	ror    $0x8,%ax
  4024b5:	66 89 44 24 32       	mov    %ax,0x32(%rsp)
  4024ba:	ba 10 00 00 00       	mov    $0x10,%edx
  4024bf:	48 8d 74 24 30       	lea    0x30(%rsp),%rsi
  4024c4:	89 ef                	mov    %ebp,%edi
  4024c6:	e8 b5 e9 ff ff       	callq  400e80 <connect@plt>
  4024cb:	85 c0                	test   %eax,%eax
  4024cd:	79 59                	jns    402528 <submitr+0x1d4>
  4024cf:	48 b8 45 72 72 6f 72 	movabs $0x55203a726f727245,%rax
  4024d6:	3a 20 55 
  4024d9:	48 89 03             	mov    %rax,(%rbx)
  4024dc:	48 b8 6e 61 62 6c 65 	movabs $0x6f7420656c62616e,%rax
  4024e3:	20 74 6f 
  4024e6:	48 89 43 08          	mov    %rax,0x8(%rbx)
  4024ea:	48 b8 20 63 6f 6e 6e 	movabs $0x7463656e6e6f6320,%rax
  4024f1:	65 63 74 
  4024f4:	48 89 43 10          	mov    %rax,0x10(%rbx)
  4024f8:	48 b8 20 74 6f 20 74 	movabs $0x20656874206f7420,%rax
  4024ff:	68 65 20 
  402502:	48 89 43 18          	mov    %rax,0x18(%rbx)
  402506:	c7 43 20 73 65 72 76 	movl   $0x76726573,0x20(%rbx)
  40250d:	66 c7 43 24 65 72    	movw   $0x7265,0x24(%rbx)
  402513:	c6 43 26 00          	movb   $0x0,0x26(%rbx)
  402517:	89 ef                	mov    %ebp,%edi
  402519:	e8 22 e8 ff ff       	callq  400d40 <close@plt>
  40251e:	b8 ff ff ff ff       	mov    $0xffffffff,%eax
  402523:	e9 61 05 00 00       	jmpq   402a89 <submitr+0x735>
  402528:	48 c7 c2 ff ff ff ff 	mov    $0xffffffffffffffff,%rdx
  40252f:	4c 89 ef             	mov    %r13,%rdi
  402532:	b8 00 00 00 00       	mov    $0x0,%eax
  402537:	48 89 d1             	mov    %rdx,%rcx
  40253a:	f2 ae                	repnz scas %es:(%rdi),%al
  40253c:	48 f7 d1             	not    %rcx
  40253f:	48 89 ce             	mov    %rcx,%rsi
  402542:	4c 89 ff             	mov    %r15,%rdi
  402545:	48 89 d1             	mov    %rdx,%rcx
  402548:	f2 ae                	repnz scas %es:(%rdi),%al
  40254a:	48 f7 d1             	not    %rcx
  40254d:	49 89 c8             	mov    %rcx,%r8
  402550:	4c 89 f7             	mov    %r14,%rdi
  402553:	48 89 d1             	mov    %rdx,%rcx
  402556:	f2 ae                	repnz scas %es:(%rdi),%al
  402558:	49 29 c8             	sub    %rcx,%r8
  40255b:	48 8b 7c 24 18       	mov    0x18(%rsp),%rdi
  402560:	48 89 d1             	mov    %rdx,%rcx
  402563:	f2 ae                	repnz scas %es:(%rdi),%al
  402565:	49 29 c8             	sub    %rcx,%r8
  402568:	48 8d 44 76 fd       	lea    -0x3(%rsi,%rsi,2),%rax
  40256d:	49 8d 44 00 7b       	lea    0x7b(%r8,%rax,1),%rax
  402572:	48 3d 00 20 00 00    	cmp    $0x2000,%rax
  402578:	76 72                	jbe    4025ec <submitr+0x298>
  40257a:	48 b8 45 72 72 6f 72 	movabs $0x52203a726f727245,%rax
  402581:	3a 20 52 
  402584:	48 89 03             	mov    %rax,(%rbx)
  402587:	48 b8 65 73 75 6c 74 	movabs $0x747320746c757365,%rax
  40258e:	20 73 74 
  402591:	48 89 43 08          	mov    %rax,0x8(%rbx)
  402595:	48 b8 72 69 6e 67 20 	movabs $0x6f6f7420676e6972,%rax
  40259c:	74 6f 6f 
  40259f:	48 89 43 10          	mov    %rax,0x10(%rbx)
  4025a3:	48 b8 20 6c 61 72 67 	movabs $0x202e656772616c20,%rax
  4025aa:	65 2e 20 
  4025ad:	48 89 43 18          	mov    %rax,0x18(%rbx)
  4025b1:	48 b8 49 6e 63 72 65 	movabs $0x6573616572636e49,%rax
  4025b8:	61 73 65 
  4025bb:	48 89 43 20          	mov    %rax,0x20(%rbx)
  4025bf:	48 b8 20 53 55 42 4d 	movabs $0x5254494d42555320,%rax
  4025c6:	49 54 52 
  4025c9:	48 89 43 28          	mov    %rax,0x28(%rbx)
  4025cd:	48 b8 5f 4d 41 58 42 	movabs $0x46554258414d5f,%rax
  4025d4:	55 46 00 
  4025d7:	48 89 43 30          	mov    %rax,0x30(%rbx)
  4025db:	89 ef                	mov    %ebp,%edi
  4025dd:	e8 5e e7 ff ff       	callq  400d40 <close@plt>
  4025e2:	b8 ff ff ff ff       	mov    $0xffffffff,%eax
  4025e7:	e9 9d 04 00 00       	jmpq   402a89 <submitr+0x735>
  4025ec:	48 8d b4 24 40 20 00 	lea    0x2040(%rsp),%rsi
  4025f3:	00 
  4025f4:	b9 00 04 00 00       	mov    $0x400,%ecx
  4025f9:	b8 00 00 00 00       	mov    $0x0,%eax
  4025fe:	48 89 f7             	mov    %rsi,%rdi
  402601:	f3 48 ab             	rep stos %rax,%es:(%rdi)
  402604:	4c 89 ef             	mov    %r13,%rdi
  402607:	e8 3b fc ff ff       	callq  402247 <urlencode>
  40260c:	85 c0                	test   %eax,%eax
  40260e:	0f 89 8a 00 00 00    	jns    40269e <submitr+0x34a>
  402614:	48 b8 45 72 72 6f 72 	movabs $0x52203a726f727245,%rax
  40261b:	3a 20 52 
  40261e:	48 89 03             	mov    %rax,(%rbx)
  402621:	48 b8 65 73 75 6c 74 	movabs $0x747320746c757365,%rax
  402628:	20 73 74 
  40262b:	48 89 43 08          	mov    %rax,0x8(%rbx)
  40262f:	48 b8 72 69 6e 67 20 	movabs $0x6e6f6320676e6972,%rax
  402636:	63 6f 6e 
  402639:	48 89 43 10          	mov    %rax,0x10(%rbx)
  40263d:	48 b8 74 61 69 6e 73 	movabs $0x6e6120736e696174,%rax
  402644:	20 61 6e 
  402647:	48 89 43 18          	mov    %rax,0x18(%rbx)
  40264b:	48 b8 20 69 6c 6c 65 	movabs $0x6c6167656c6c6920,%rax
  402652:	67 61 6c 
  402655:	48 89 43 20          	mov    %rax,0x20(%rbx)
  402659:	48 b8 20 6f 72 20 75 	movabs $0x72706e7520726f20,%rax
  402660:	6e 70 72 
  402663:	48 89 43 28          	mov    %rax,0x28(%rbx)
  402667:	48 b8 69 6e 74 61 62 	movabs $0x20656c6261746e69,%rax
  40266e:	6c 65 20 
  402671:	48 89 43 30          	mov    %rax,0x30(%rbx)
  402675:	48 b8 63 68 61 72 61 	movabs $0x6574636172616863,%rax
  40267c:	63 74 65 
  40267f:	48 89 43 38          	mov    %rax,0x38(%rbx)
  402683:	66 c7 43 40 72 2e    	movw   $0x2e72,0x40(%rbx)
  402689:	c6 43 42 00          	movb   $0x0,0x42(%rbx)
  40268d:	89 ef                	mov    %ebp,%edi
  40268f:	e8 ac e6 ff ff       	callq  400d40 <close@plt>
  402694:	b8 ff ff ff ff       	mov    $0xffffffff,%eax
  402699:	e9 eb 03 00 00       	jmpq   402a89 <submitr+0x735>
  40269e:	4c 89 64 24 08       	mov    %r12,0x8(%rsp)
  4026a3:	48 8d 84 24 40 20 00 	lea    0x2040(%rsp),%rax
  4026aa:	00 
  4026ab:	48 89 04 24          	mov    %rax,(%rsp)
  4026af:	4d 89 f9             	mov    %r15,%r9
  4026b2:	4d 89 f0             	mov    %r14,%r8
  4026b5:	b9 98 35 40 00       	mov    $0x403598,%ecx
  4026ba:	ba 00 20 00 00       	mov    $0x2000,%edx
  4026bf:	be 01 00 00 00       	mov    $0x1,%esi
  4026c4:	48 8d 7c 24 40       	lea    0x40(%rsp),%rdi
  4026c9:	b8 00 00 00 00       	mov    $0x0,%eax
  4026ce:	e8 cd e7 ff ff       	callq  400ea0 <__sprintf_chk@plt>
  4026d3:	48 8d 7c 24 40       	lea    0x40(%rsp),%rdi
  4026d8:	b8 00 00 00 00       	mov    $0x0,%eax
  4026dd:	48 c7 c1 ff ff ff ff 	mov    $0xffffffffffffffff,%rcx
  4026e4:	f2 ae                	repnz scas %es:(%rdi),%al
  4026e6:	48 f7 d1             	not    %rcx
  4026e9:	48 8d 51 ff          	lea    -0x1(%rcx),%rdx
  4026ed:	48 8d 74 24 40       	lea    0x40(%rsp),%rsi
  4026f2:	89 ef                	mov    %ebp,%edi
  4026f4:	e8 e7 f9 ff ff       	callq  4020e0 <rio_writen>
  4026f9:	48 85 c0             	test   %rax,%rax
  4026fc:	79 6e                	jns    40276c <submitr+0x418>
  4026fe:	48 b8 45 72 72 6f 72 	movabs $0x43203a726f727245,%rax
  402705:	3a 20 43 
  402708:	48 89 03             	mov    %rax,(%rbx)
  40270b:	48 b8 6c 69 65 6e 74 	movabs $0x6e7520746e65696c,%rax
  402712:	20 75 6e 
  402715:	48 89 43 08          	mov    %rax,0x8(%rbx)
  402719:	48 b8 61 62 6c 65 20 	movabs $0x206f7420656c6261,%rax
  402720:	74 6f 20 
  402723:	48 89 43 10          	mov    %rax,0x10(%rbx)
  402727:	48 b8 77 72 69 74 65 	movabs $0x6f74206574697277,%rax
  40272e:	20 74 6f 
  402731:	48 89 43 18          	mov    %rax,0x18(%rbx)
  402735:	48 b8 20 74 68 65 20 	movabs $0x7365722065687420,%rax
  40273c:	72 65 73 
  40273f:	48 89 43 20          	mov    %rax,0x20(%rbx)
  402743:	48 b8 75 6c 74 20 73 	movabs $0x7672657320746c75,%rax
  40274a:	65 72 76 
  40274d:	48 89 43 28          	mov    %rax,0x28(%rbx)
  402751:	66 c7 43 30 65 72    	movw   $0x7265,0x30(%rbx)
  402757:	c6 43 32 00          	movb   $0x0,0x32(%rbx)
  40275b:	89 ef                	mov    %ebp,%edi
  40275d:	e8 de e5 ff ff       	callq  400d40 <close@plt>
  402762:	b8 ff ff ff ff       	mov    $0xffffffff,%eax
  402767:	e9 1d 03 00 00       	jmpq   402a89 <submitr+0x735>
  40276c:	89 ee                	mov    %ebp,%esi
  40276e:	48 8d bc 24 40 80 00 	lea    0x8040(%rsp),%rdi
  402775:	00 
  402776:	e8 25 f9 ff ff       	callq  4020a0 <rio_readinitb>
  40277b:	ba 00 20 00 00       	mov    $0x2000,%edx
  402780:	48 8d 74 24 40       	lea    0x40(%rsp),%rsi
  402785:	48 8d bc 24 40 80 00 	lea    0x8040(%rsp),%rdi
  40278c:	00 
  40278d:	e8 31 fa ff ff       	callq  4021c3 <rio_readlineb>
  402792:	48 85 c0             	test   %rax,%rax
  402795:	7f 7d                	jg     402814 <submitr+0x4c0>
  402797:	48 b8 45 72 72 6f 72 	movabs $0x43203a726f727245,%rax
  40279e:	3a 20 43 
  4027a1:	48 89 03             	mov    %rax,(%rbx)
  4027a4:	48 b8 6c 69 65 6e 74 	movabs $0x6e7520746e65696c,%rax
  4027ab:	20 75 6e 
  4027ae:	48 89 43 08          	mov    %rax,0x8(%rbx)
  4027b2:	48 b8 61 62 6c 65 20 	movabs $0x206f7420656c6261,%rax
  4027b9:	74 6f 20 
  4027bc:	48 89 43 10          	mov    %rax,0x10(%rbx)
  4027c0:	48 b8 72 65 61 64 20 	movabs $0x7269662064616572,%rax
  4027c7:	66 69 72 
  4027ca:	48 89 43 18          	mov    %rax,0x18(%rbx)
  4027ce:	48 b8 73 74 20 68 65 	movabs $0x6564616568207473,%rax
  4027d5:	61 64 65 
  4027d8:	48 89 43 20          	mov    %rax,0x20(%rbx)
  4027dc:	48 b8 72 20 66 72 6f 	movabs $0x72206d6f72662072,%rax
  4027e3:	6d 20 72 
  4027e6:	48 89 43 28          	mov    %rax,0x28(%rbx)
  4027ea:	48 b8 65 73 75 6c 74 	movabs $0x657320746c757365,%rax
  4027f1:	20 73 65 
  4027f4:	48 89 43 30          	mov    %rax,0x30(%rbx)
  4027f8:	c7 43 38 72 76 65 72 	movl   $0x72657672,0x38(%rbx)
  4027ff:	c6 43 3c 00          	movb   $0x0,0x3c(%rbx)
  402803:	89 ef                	mov    %ebp,%edi
  402805:	e8 36 e5 ff ff       	callq  400d40 <close@plt>
  40280a:	b8 ff ff ff ff       	mov    $0xffffffff,%eax
  40280f:	e9 75 02 00 00       	jmpq   402a89 <submitr+0x735>
  402814:	4c 8d 84 24 40 60 00 	lea    0x6040(%rsp),%r8
  40281b:	00 
  40281c:	48 8d 4c 24 2c       	lea    0x2c(%rsp),%rcx
  402821:	48 8d 94 24 40 40 00 	lea    0x4040(%rsp),%rdx
  402828:	00 
  402829:	be 0f 36 40 00       	mov    $0x40360f,%esi
  40282e:	48 8d 7c 24 40       	lea    0x40(%rsp),%rdi
  402833:	b8 00 00 00 00       	mov    $0x0,%eax
  402838:	e8 c3 e5 ff ff       	callq  400e00 <__isoc99_sscanf@plt>
  40283d:	41 bc 0d 00 00 00    	mov    $0xd,%r12d
  402843:	41 bd 0a 00 00 00    	mov    $0xa,%r13d
  402849:	e9 95 00 00 00       	jmpq   4028e3 <submitr+0x58f>
  40284e:	ba 00 20 00 00       	mov    $0x2000,%edx
  402853:	48 8d 74 24 40       	lea    0x40(%rsp),%rsi
  402858:	48 8d bc 24 40 80 00 	lea    0x8040(%rsp),%rdi
  40285f:	00 
  402860:	e8 5e f9 ff ff       	callq  4021c3 <rio_readlineb>
  402865:	48 85 c0             	test   %rax,%rax
  402868:	7f 79                	jg     4028e3 <submitr+0x58f>
  40286a:	48 b8 45 72 72 6f 72 	movabs $0x43203a726f727245,%rax
  402871:	3a 20 43 
  402874:	48 89 03             	mov    %rax,(%rbx)
  402877:	48 b8 6c 69 65 6e 74 	movabs $0x6e7520746e65696c,%rax
  40287e:	20 75 6e 
  402881:	48 89 43 08          	mov    %rax,0x8(%rbx)
  402885:	48 b8 61 62 6c 65 20 	movabs $0x206f7420656c6261,%rax
  40288c:	74 6f 20 
  40288f:	48 89 43 10          	mov    %rax,0x10(%rbx)
  402893:	48 b8 72 65 61 64 20 	movabs $0x6165682064616572,%rax
  40289a:	68 65 61 
  40289d:	48 89 43 18          	mov    %rax,0x18(%rbx)
  4028a1:	48 b8 64 65 72 73 20 	movabs $0x6f72662073726564,%rax
  4028a8:	66 72 6f 
  4028ab:	48 89 43 20          	mov    %rax,0x20(%rbx)
  4028af:	48 b8 6d 20 74 68 65 	movabs $0x657220656874206d,%rax
  4028b6:	20 72 65 
  4028b9:	48 89 43 28          	mov    %rax,0x28(%rbx)
  4028bd:	48 b8 73 75 6c 74 20 	movabs $0x72657320746c7573,%rax
  4028c4:	73 65 72 
  4028c7:	48 89 43 30          	mov    %rax,0x30(%rbx)
  4028cb:	c7 43 38 76 65 72 00 	movl   $0x726576,0x38(%rbx)
  4028d2:	89 ef                	mov    %ebp,%edi
  4028d4:	e8 67 e4 ff ff       	callq  400d40 <close@plt>
  4028d9:	b8 ff ff ff ff       	mov    $0xffffffff,%eax
  4028de:	e9 a6 01 00 00       	jmpq   402a89 <submitr+0x735>
  4028e3:	0f b6 44 24 40       	movzbl 0x40(%rsp),%eax
  4028e8:	44 89 e6             	mov    %r12d,%esi
  4028eb:	29 c6                	sub    %eax,%esi
  4028ed:	89 f0                	mov    %esi,%eax
  4028ef:	75 15                	jne    402906 <submitr+0x5b2>
  4028f1:	0f b6 44 24 41       	movzbl 0x41(%rsp),%eax
  4028f6:	44 89 ea             	mov    %r13d,%edx
  4028f9:	29 c2                	sub    %eax,%edx
  4028fb:	89 d0                	mov    %edx,%eax
  4028fd:	75 07                	jne    402906 <submitr+0x5b2>
  4028ff:	0f b6 44 24 42       	movzbl 0x42(%rsp),%eax
  402904:	f7 d8                	neg    %eax
  402906:	85 c0                	test   %eax,%eax
  402908:	0f 85 40 ff ff ff    	jne    40284e <submitr+0x4fa>
  40290e:	ba 00 20 00 00       	mov    $0x2000,%edx
  402913:	48 8d 74 24 40       	lea    0x40(%rsp),%rsi
  402918:	48 8d bc 24 40 80 00 	lea    0x8040(%rsp),%rdi
  40291f:	00 
  402920:	e8 9e f8 ff ff       	callq  4021c3 <rio_readlineb>
  402925:	48 85 c0             	test   %rax,%rax
  402928:	0f 8f 83 00 00 00    	jg     4029b1 <submitr+0x65d>
  40292e:	48 b8 45 72 72 6f 72 	movabs $0x43203a726f727245,%rax
  402935:	3a 20 43 
  402938:	48 89 03             	mov    %rax,(%rbx)
  40293b:	48 b8 6c 69 65 6e 74 	movabs $0x6e7520746e65696c,%rax
  402942:	20 75 6e 
  402945:	48 89 43 08          	mov    %rax,0x8(%rbx)
  402949:	48 b8 61 62 6c 65 20 	movabs $0x206f7420656c6261,%rax
  402950:	74 6f 20 
  402953:	48 89 43 10          	mov    %rax,0x10(%rbx)
  402957:	48 b8 72 65 61 64 20 	movabs $0x6174732064616572,%rax
  40295e:	73 74 61 
  402961:	48 89 43 18          	mov    %rax,0x18(%rbx)
  402965:	48 b8 74 75 73 20 6d 	movabs $0x7373656d20737574,%rax
  40296c:	65 73 73 
  40296f:	48 89 43 20          	mov    %rax,0x20(%rbx)
  402973:	48 b8 61 67 65 20 66 	movabs $0x6d6f726620656761,%rax
  40297a:	72 6f 6d 
  40297d:	48 89 43 28          	mov    %rax,0x28(%rbx)
  402981:	48 b8 20 72 65 73 75 	movabs $0x20746c7573657220,%rax
  402988:	6c 74 20 
  40298b:	48 89 43 30          	mov    %rax,0x30(%rbx)
  40298f:	c7 43 38 73 65 72 76 	movl   $0x76726573,0x38(%rbx)
  402996:	66 c7 43 3c 65 72    	movw   $0x7265,0x3c(%rbx)
  40299c:	c6 43 3e 00          	movb   $0x0,0x3e(%rbx)
  4029a0:	89 ef                	mov    %ebp,%edi
  4029a2:	e8 99 e3 ff ff       	callq  400d40 <close@plt>
  4029a7:	b8 ff ff ff ff       	mov    $0xffffffff,%eax
  4029ac:	e9 d8 00 00 00       	jmpq   402a89 <submitr+0x735>
  4029b1:	44 8b 44 24 2c       	mov    0x2c(%rsp),%r8d
  4029b6:	41 81 f8 c8 00 00 00 	cmp    $0xc8,%r8d
  4029bd:	74 37                	je     4029f6 <submitr+0x6a2>
  4029bf:	4c 8d 8c 24 40 60 00 	lea    0x6040(%rsp),%r9
  4029c6:	00 
  4029c7:	b9 d8 35 40 00       	mov    $0x4035d8,%ecx
  4029cc:	48 c7 c2 ff ff ff ff 	mov    $0xffffffffffffffff,%rdx
  4029d3:	be 01 00 00 00       	mov    $0x1,%esi
  4029d8:	48 89 df             	mov    %rbx,%rdi
  4029db:	b8 00 00 00 00       	mov    $0x0,%eax
  4029e0:	e8 bb e4 ff ff       	callq  400ea0 <__sprintf_chk@plt>
  4029e5:	89 ef                	mov    %ebp,%edi
  4029e7:	e8 54 e3 ff ff       	callq  400d40 <close@plt>
  4029ec:	b8 ff ff ff ff       	mov    $0xffffffff,%eax
  4029f1:	e9 93 00 00 00       	jmpq   402a89 <submitr+0x735>
  4029f6:	48 8d 74 24 40       	lea    0x40(%rsp),%rsi
  4029fb:	48 89 df             	mov    %rbx,%rdi
  4029fe:	e8 cd e2 ff ff       	callq  400cd0 <strcpy@plt>
  402a03:	89 ef                	mov    %ebp,%edi
  402a05:	e8 36 e3 ff ff       	callq  400d40 <close@plt>
  402a0a:	0f b6 03             	movzbl (%rbx),%eax
  402a0d:	ba 4f 00 00 00       	mov    $0x4f,%edx
  402a12:	29 c2                	sub    %eax,%edx
  402a14:	75 22                	jne    402a38 <submitr+0x6e4>
  402a16:	0f b6 4b 01          	movzbl 0x1(%rbx),%ecx
  402a1a:	b8 4b 00 00 00       	mov    $0x4b,%eax
  402a1f:	29 c8                	sub    %ecx,%eax
  402a21:	75 17                	jne    402a3a <submitr+0x6e6>
  402a23:	0f b6 4b 02          	movzbl 0x2(%rbx),%ecx
  402a27:	b8 0a 00 00 00       	mov    $0xa,%eax
  402a2c:	29 c8                	sub    %ecx,%eax
  402a2e:	75 0a                	jne    402a3a <submitr+0x6e6>
  402a30:	0f b6 43 03          	movzbl 0x3(%rbx),%eax
  402a34:	f7 d8                	neg    %eax
  402a36:	eb 02                	jmp    402a3a <submitr+0x6e6>
  402a38:	89 d0                	mov    %edx,%eax
  402a3a:	85 c0                	test   %eax,%eax
  402a3c:	74 38                	je     402a76 <submitr+0x722>
  402a3e:	bf 20 36 40 00       	mov    $0x403620,%edi
  402a43:	b9 05 00 00 00       	mov    $0x5,%ecx
  402a48:	48 89 de             	mov    %rbx,%rsi
  402a4b:	f3 a6                	repz cmpsb %es:(%rdi),%ds:(%rsi)
  402a4d:	0f 97 c1             	seta   %cl
  402a50:	0f 92 c0             	setb   %al
  402a53:	38 c1                	cmp    %al,%cl
  402a55:	74 26                	je     402a7d <submitr+0x729>
  402a57:	85 d2                	test   %edx,%edx
  402a59:	75 10                	jne    402a6b <submitr+0x717>
  402a5b:	0f b6 43 01          	movzbl 0x1(%rbx),%eax
  402a5f:	b2 4b                	mov    $0x4b,%dl
  402a61:	29 c2                	sub    %eax,%edx
  402a63:	75 06                	jne    402a6b <submitr+0x717>
  402a65:	0f b6 53 02          	movzbl 0x2(%rbx),%edx
  402a69:	f7 da                	neg    %edx
  402a6b:	85 d2                	test   %edx,%edx
  402a6d:	75 15                	jne    402a84 <submitr+0x730>
  402a6f:	b8 00 00 00 00       	mov    $0x0,%eax
  402a74:	eb 13                	jmp    402a89 <submitr+0x735>
  402a76:	b8 00 00 00 00       	mov    $0x0,%eax
  402a7b:	eb 0c                	jmp    402a89 <submitr+0x735>
  402a7d:	b8 00 00 00 00       	mov    $0x0,%eax
  402a82:	eb 05                	jmp    402a89 <submitr+0x735>
  402a84:	b8 ff ff ff ff       	mov    $0xffffffff,%eax
  402a89:	48 8b 9c 24 58 a0 00 	mov    0xa058(%rsp),%rbx
  402a90:	00 
  402a91:	64 48 33 1c 25 28 00 	xor    %fs:0x28,%rbx
  402a98:	00 00 
  402a9a:	74 05                	je     402aa1 <submitr+0x74d>
  402a9c:	e8 5f e2 ff ff       	callq  400d00 <__stack_chk_fail@plt>
  402aa1:	48 81 c4 68 a0 00 00 	add    $0xa068,%rsp
  402aa8:	5b                   	pop    %rbx
  402aa9:	5d                   	pop    %rbp
  402aaa:	41 5c                	pop    %r12
  402aac:	41 5d                	pop    %r13
  402aae:	41 5e                	pop    %r14
  402ab0:	41 5f                	pop    %r15
  402ab2:	c3                   	retq   

0000000000402ab3 <init_timeout>:
  402ab3:	53                   	push   %rbx
  402ab4:	89 fb                	mov    %edi,%ebx
  402ab6:	85 ff                	test   %edi,%edi
  402ab8:	74 1f                	je     402ad9 <init_timeout+0x26>
  402aba:	85 ff                	test   %edi,%edi
  402abc:	79 05                	jns    402ac3 <init_timeout+0x10>
  402abe:	bb 00 00 00 00       	mov    $0x0,%ebx
  402ac3:	be b2 20 40 00       	mov    $0x4020b2,%esi
  402ac8:	bf 0e 00 00 00       	mov    $0xe,%edi
  402acd:	e8 9e e2 ff ff       	callq  400d70 <signal@plt>
  402ad2:	89 df                	mov    %ebx,%edi
  402ad4:	e8 57 e2 ff ff       	callq  400d30 <alarm@plt>
  402ad9:	5b                   	pop    %rbx
  402ada:	c3                   	retq   

0000000000402adb <init_driver>:
  402adb:	55                   	push   %rbp
  402adc:	53                   	push   %rbx
  402add:	48 83 ec 28          	sub    $0x28,%rsp
  402ae1:	48 89 fd             	mov    %rdi,%rbp
  402ae4:	64 48 8b 04 25 28 00 	mov    %fs:0x28,%rax
  402aeb:	00 00 
  402aed:	48 89 44 24 18       	mov    %rax,0x18(%rsp)
  402af2:	31 c0                	xor    %eax,%eax
  402af4:	be 01 00 00 00       	mov    $0x1,%esi
  402af9:	bf 0d 00 00 00       	mov    $0xd,%edi
  402afe:	e8 6d e2 ff ff       	callq  400d70 <signal@plt>
  402b03:	be 01 00 00 00       	mov    $0x1,%esi
  402b08:	bf 1d 00 00 00       	mov    $0x1d,%edi
  402b0d:	e8 5e e2 ff ff       	callq  400d70 <signal@plt>
  402b12:	be 01 00 00 00       	mov    $0x1,%esi
  402b17:	bf 1d 00 00 00       	mov    $0x1d,%edi
  402b1c:	e8 4f e2 ff ff       	callq  400d70 <signal@plt>
  402b21:	ba 00 00 00 00       	mov    $0x0,%edx
  402b26:	be 01 00 00 00       	mov    $0x1,%esi
  402b2b:	bf 02 00 00 00       	mov    $0x2,%edi
  402b30:	e8 7b e3 ff ff       	callq  400eb0 <socket@plt>
  402b35:	89 c3                	mov    %eax,%ebx
  402b37:	85 c0                	test   %eax,%eax
  402b39:	79 4f                	jns    402b8a <init_driver+0xaf>
  402b3b:	48 b8 45 72 72 6f 72 	movabs $0x43203a726f727245,%rax
  402b42:	3a 20 43 
  402b45:	48 89 45 00          	mov    %rax,0x0(%rbp)
  402b49:	48 b8 6c 69 65 6e 74 	movabs $0x6e7520746e65696c,%rax
  402b50:	20 75 6e 
  402b53:	48 89 45 08          	mov    %rax,0x8(%rbp)
  402b57:	48 b8 61 62 6c 65 20 	movabs $0x206f7420656c6261,%rax
  402b5e:	74 6f 20 
  402b61:	48 89 45 10          	mov    %rax,0x10(%rbp)
  402b65:	48 b8 63 72 65 61 74 	movabs $0x7320657461657263,%rax
  402b6c:	65 20 73 
  402b6f:	48 89 45 18          	mov    %rax,0x18(%rbp)
  402b73:	c7 45 20 6f 63 6b 65 	movl   $0x656b636f,0x20(%rbp)
  402b7a:	66 c7 45 24 74 00    	movw   $0x74,0x24(%rbp)
  402b80:	b8 ff ff ff ff       	mov    $0xffffffff,%eax
  402b85:	e9 28 01 00 00       	jmpq   402cb2 <init_driver+0x1d7>
  402b8a:	bf 25 36 40 00       	mov    $0x403625,%edi
  402b8f:	e8 ec e1 ff ff       	callq  400d80 <gethostbyname@plt>
  402b94:	48 85 c0             	test   %rax,%rax
  402b97:	75 68                	jne    402c01 <init_driver+0x126>
  402b99:	48 b8 45 72 72 6f 72 	movabs $0x44203a726f727245,%rax
  402ba0:	3a 20 44 
  402ba3:	48 89 45 00          	mov    %rax,0x0(%rbp)
  402ba7:	48 b8 4e 53 20 69 73 	movabs $0x6e7520736920534e,%rax
  402bae:	20 75 6e 
  402bb1:	48 89 45 08          	mov    %rax,0x8(%rbp)
  402bb5:	48 b8 61 62 6c 65 20 	movabs $0x206f7420656c6261,%rax
  402bbc:	74 6f 20 
  402bbf:	48 89 45 10          	mov    %rax,0x10(%rbp)
  402bc3:	48 b8 72 65 73 6f 6c 	movabs $0x2065766c6f736572,%rax
  402bca:	76 65 20 
  402bcd:	48 89 45 18          	mov    %rax,0x18(%rbp)
  402bd1:	48 b8 73 65 72 76 65 	movabs $0x6120726576726573,%rax
  402bd8:	72 20 61 
  402bdb:	48 89 45 20          	mov    %rax,0x20(%rbp)
  402bdf:	c7 45 28 64 64 72 65 	movl   $0x65726464,0x28(%rbp)
  402be6:	66 c7 45 2c 73 73    	movw   $0x7373,0x2c(%rbp)
  402bec:	c6 45 2e 00          	movb   $0x0,0x2e(%rbp)
  402bf0:	89 df                	mov    %ebx,%edi
  402bf2:	e8 49 e1 ff ff       	callq  400d40 <close@plt>
  402bf7:	b8 ff ff ff ff       	mov    $0xffffffff,%eax
  402bfc:	e9 b1 00 00 00       	jmpq   402cb2 <init_driver+0x1d7>
  402c01:	48 c7 04 24 00 00 00 	movq   $0x0,(%rsp)
  402c08:	00 
  402c09:	48 c7 44 24 08 00 00 	movq   $0x0,0x8(%rsp)
  402c10:	00 00 
  402c12:	66 c7 04 24 02 00    	movw   $0x2,(%rsp)
  402c18:	48 63 50 14          	movslq 0x14(%rax),%rdx
  402c1c:	48 8b 40 18          	mov    0x18(%rax),%rax
  402c20:	48 8b 30             	mov    (%rax),%rsi
  402c23:	48 8d 7c 24 04       	lea    0x4(%rsp),%rdi
  402c28:	b9 0c 00 00 00       	mov    $0xc,%ecx
  402c2d:	e8 5e e1 ff ff       	callq  400d90 <__memmove_chk@plt>
  402c32:	66 c7 44 24 02 3c 9a 	movw   $0x9a3c,0x2(%rsp)
  402c39:	ba 10 00 00 00       	mov    $0x10,%edx
  402c3e:	48 89 e6             	mov    %rsp,%rsi
  402c41:	89 df                	mov    %ebx,%edi
  402c43:	e8 38 e2 ff ff       	callq  400e80 <connect@plt>
  402c48:	85 c0                	test   %eax,%eax
  402c4a:	79 50                	jns    402c9c <init_driver+0x1c1>
  402c4c:	48 b8 45 72 72 6f 72 	movabs $0x55203a726f727245,%rax
  402c53:	3a 20 55 
  402c56:	48 89 45 00          	mov    %rax,0x0(%rbp)
  402c5a:	48 b8 6e 61 62 6c 65 	movabs $0x6f7420656c62616e,%rax
  402c61:	20 74 6f 
  402c64:	48 89 45 08          	mov    %rax,0x8(%rbp)
  402c68:	48 b8 20 63 6f 6e 6e 	movabs $0x7463656e6e6f6320,%rax
  402c6f:	65 63 74 
  402c72:	48 89 45 10          	mov    %rax,0x10(%rbp)
  402c76:	48 b8 20 74 6f 20 73 	movabs $0x76726573206f7420,%rax
  402c7d:	65 72 76 
  402c80:	48 89 45 18          	mov    %rax,0x18(%rbp)
  402c84:	66 c7 45 20 65 72    	movw   $0x7265,0x20(%rbp)
  402c8a:	c6 45 22 00          	movb   $0x0,0x22(%rbp)
  402c8e:	89 df                	mov    %ebx,%edi
  402c90:	e8 ab e0 ff ff       	callq  400d40 <close@plt>
  402c95:	b8 ff ff ff ff       	mov    $0xffffffff,%eax
  402c9a:	eb 16                	jmp    402cb2 <init_driver+0x1d7>
  402c9c:	89 df                	mov    %ebx,%edi
  402c9e:	e8 9d e0 ff ff       	callq  400d40 <close@plt>
  402ca3:	66 c7 45 00 4f 4b    	movw   $0x4b4f,0x0(%rbp)
  402ca9:	c6 45 02 00          	movb   $0x0,0x2(%rbp)
  402cad:	b8 00 00 00 00       	mov    $0x0,%eax
  402cb2:	48 8b 4c 24 18       	mov    0x18(%rsp),%rcx
  402cb7:	64 48 33 0c 25 28 00 	xor    %fs:0x28,%rcx
  402cbe:	00 00 
  402cc0:	74 05                	je     402cc7 <init_driver+0x1ec>
  402cc2:	e8 39 e0 ff ff       	callq  400d00 <__stack_chk_fail@plt>
  402cc7:	48 83 c4 28          	add    $0x28,%rsp
  402ccb:	5b                   	pop    %rbx
  402ccc:	5d                   	pop    %rbp
  402ccd:	c3                   	retq   

0000000000402cce <driver_post>:
  402cce:	53                   	push   %rbx
  402ccf:	48 83 ec 10          	sub    $0x10,%rsp
  402cd3:	4c 89 cb             	mov    %r9,%rbx
  402cd6:	45 85 c0             	test   %r8d,%r8d
  402cd9:	74 27                	je     402d02 <driver_post+0x34>
  402cdb:	48 89 ca             	mov    %rcx,%rdx
  402cde:	be 35 36 40 00       	mov    $0x403635,%esi
  402ce3:	bf 01 00 00 00       	mov    $0x1,%edi
  402ce8:	b8 00 00 00 00       	mov    $0x0,%eax
  402ced:	e8 2e e1 ff ff       	callq  400e20 <__printf_chk@plt>
  402cf2:	66 c7 03 4f 4b       	movw   $0x4b4f,(%rbx)
  402cf7:	c6 43 02 00          	movb   $0x0,0x2(%rbx)
  402cfb:	b8 00 00 00 00       	mov    $0x0,%eax
  402d00:	eb 39                	jmp    402d3b <driver_post+0x6d>
  402d02:	48 85 ff             	test   %rdi,%rdi
  402d05:	74 26                	je     402d2d <driver_post+0x5f>
  402d07:	80 3f 00             	cmpb   $0x0,(%rdi)
  402d0a:	74 21                	je     402d2d <driver_post+0x5f>
  402d0c:	4c 89 0c 24          	mov    %r9,(%rsp)
  402d10:	49 89 c9             	mov    %rcx,%r9
  402d13:	49 89 d0             	mov    %rdx,%r8
  402d16:	48 89 f9             	mov    %rdi,%rcx
  402d19:	48 89 f2             	mov    %rsi,%rdx
  402d1c:	be 9a 3c 00 00       	mov    $0x3c9a,%esi
  402d21:	bf 25 36 40 00       	mov    $0x403625,%edi
  402d26:	e8 29 f6 ff ff       	callq  402354 <submitr>
  402d2b:	eb 0e                	jmp    402d3b <driver_post+0x6d>
  402d2d:	66 c7 03 4f 4b       	movw   $0x4b4f,(%rbx)
  402d32:	c6 43 02 00          	movb   $0x0,0x2(%rbx)
  402d36:	b8 00 00 00 00       	mov    $0x0,%eax
  402d3b:	48 83 c4 10          	add    $0x10,%rsp
  402d3f:	5b                   	pop    %rbx
  402d40:	c3                   	retq   

0000000000402d41 <check>:
  402d41:	89 f8                	mov    %edi,%eax
  402d43:	c1 e8 1c             	shr    $0x1c,%eax
  402d46:	85 c0                	test   %eax,%eax
  402d48:	74 1d                	je     402d67 <check+0x26>
  402d4a:	b9 00 00 00 00       	mov    $0x0,%ecx
  402d4f:	eb 0b                	jmp    402d5c <check+0x1b>
  402d51:	89 f8                	mov    %edi,%eax
  402d53:	d3 e8                	shr    %cl,%eax
  402d55:	3c 0a                	cmp    $0xa,%al
  402d57:	74 14                	je     402d6d <check+0x2c>
  402d59:	83 c1 08             	add    $0x8,%ecx
  402d5c:	83 f9 1f             	cmp    $0x1f,%ecx
  402d5f:	7e f0                	jle    402d51 <check+0x10>
  402d61:	b8 01 00 00 00       	mov    $0x1,%eax
  402d66:	c3                   	retq   
  402d67:	b8 00 00 00 00       	mov    $0x0,%eax
  402d6c:	c3                   	retq   
  402d6d:	b8 00 00 00 00       	mov    $0x0,%eax
  402d72:	c3                   	retq   

0000000000402d73 <gencookie>:
  402d73:	53                   	push   %rbx
  402d74:	83 c7 01             	add    $0x1,%edi
  402d77:	e8 34 df ff ff       	callq  400cb0 <srandom@plt>
  402d7c:	e8 5f e0 ff ff       	callq  400de0 <random@plt>
  402d81:	89 c3                	mov    %eax,%ebx
  402d83:	89 c7                	mov    %eax,%edi
  402d85:	e8 b7 ff ff ff       	callq  402d41 <check>
  402d8a:	85 c0                	test   %eax,%eax
  402d8c:	74 ee                	je     402d7c <gencookie+0x9>
  402d8e:	89 d8                	mov    %ebx,%eax
  402d90:	5b                   	pop    %rbx
  402d91:	c3                   	retq   
  402d92:	66 2e 0f 1f 84 00 00 	nopw   %cs:0x0(%rax,%rax,1)
  402d99:	00 00 00 
  402d9c:	0f 1f 40 00          	nopl   0x0(%rax)

0000000000402da0 <__libc_csu_init>:
  402da0:	41 57                	push   %r15
  402da2:	41 89 ff             	mov    %edi,%r15d
  402da5:	41 56                	push   %r14
  402da7:	49 89 f6             	mov    %rsi,%r14
  402daa:	41 55                	push   %r13
  402dac:	49 89 d5             	mov    %rdx,%r13
  402daf:	41 54                	push   %r12
  402db1:	4c 8d 25 58 10 20 00 	lea    0x201058(%rip),%r12        # 603e10 <__frame_dummy_init_array_entry>
  402db8:	55                   	push   %rbp
  402db9:	48 8d 2d 58 10 20 00 	lea    0x201058(%rip),%rbp        # 603e18 <__init_array_end>
  402dc0:	53                   	push   %rbx
  402dc1:	4c 29 e5             	sub    %r12,%rbp
  402dc4:	31 db                	xor    %ebx,%ebx
  402dc6:	48 c1 fd 03          	sar    $0x3,%rbp
  402dca:	48 83 ec 08          	sub    $0x8,%rsp
  402dce:	e8 8d de ff ff       	callq  400c60 <_init>
  402dd3:	48 85 ed             	test   %rbp,%rbp
  402dd6:	74 1e                	je     402df6 <__libc_csu_init+0x56>
  402dd8:	0f 1f 84 00 00 00 00 	nopl   0x0(%rax,%rax,1)
  402ddf:	00 
  402de0:	4c 89 ea             	mov    %r13,%rdx
  402de3:	4c 89 f6             	mov    %r14,%rsi
  402de6:	44 89 ff             	mov    %r15d,%edi
  402de9:	41 ff 14 dc          	callq  *(%r12,%rbx,8)
  402ded:	48 83 c3 01          	add    $0x1,%rbx
  402df1:	48 39 eb             	cmp    %rbp,%rbx
  402df4:	75 ea                	jne    402de0 <__libc_csu_init+0x40>
  402df6:	48 83 c4 08          	add    $0x8,%rsp
  402dfa:	5b                   	pop    %rbx
  402dfb:	5d                   	pop    %rbp
  402dfc:	41 5c                	pop    %r12
  402dfe:	41 5d                	pop    %r13
  402e00:	41 5e                	pop    %r14
  402e02:	41 5f                	pop    %r15
  402e04:	c3                   	retq   
  402e05:	66 66 2e 0f 1f 84 00 	data32 nopw %cs:0x0(%rax,%rax,1)
  402e0c:	00 00 00 00 

0000000000402e10 <__libc_csu_fini>:
  402e10:	f3 c3                	repz retq 

Disassembly of section .fini:

0000000000402e14 <_fini>:
  402e14:	48 83 ec 08          	sub    $0x8,%rsp
  402e18:	48 83 c4 08          	add    $0x8,%rsp
  402e1c:	c3                   	retq   
